0x00420A8E4F9BB656 { global: _Assert; };
0x14712B6A19DA8E4C { global: _Atan; };
0x901A569605592E6E { global: _Atomic_compare_exchange_strong; };
0x004B0244D8522602 { global: _Atomic_compare_exchange_strong_1; };
0xA97919A352C69DF9 { global: _Atomic_compare_exchange_strong_2; };
0xB3E2DF0C5ECB2B13 { global: _Atomic_compare_exchange_strong_4; };
0x499AC455FBDC1EE0 { global: _Atomic_compare_exchange_strong_8; };
0x14E7BB700B818E1F { global: _Atomic_compare_exchange_weak; };
0xAC16ED293A1146AE { global: _Atomic_compare_exchange_weak_1; };
0xB033856A638A5812 { global: _Atomic_compare_exchange_weak_2; };
0xD008023B2A5B43DD { global: _Atomic_compare_exchange_weak_4; };
0x6CD14B57D0C9C5D7 { global: _Atomic_compare_exchange_weak_8; };
0x7EBC7A19EE7E51CA { global: _Atomic_copy; };
0xAAF4E92D42B0ABB4 { global: _Atomic_exchange; };
0x28725F95C1FDB3CE { global: _Atomic_exchange_1; };
0x4DBB8B5A95AE2667 { global: _Atomic_exchange_2; };
0x001200EDE7AF4E56 { global: _Atomic_exchange_4; };
0x00FB1A067F1EE724 { global: _Atomic_exchange_8; };
0x70ED25744937524A { global: _Atomic_fetch_add_1; };
0xF6449643C446B55C { global: _Atomic_fetch_add_2; };
0x88F06AB3E614505C { global: _Atomic_fetch_add_4; };
0x415B24DDF58D6E9D { global: _Atomic_fetch_add_8; };
0x5150D6B2C44D10F3 { global: _Atomic_fetch_and_1; };
0x003E77E112C679BA { global: _Atomic_fetch_and_2; };
0x3E7D9D9EF5266D10 { global: _Atomic_fetch_and_4; };
0x3BA2C4A07A36A924 { global: _Atomic_fetch_and_8; };
0x2B8F66A9ECB32D29 { global: _Atomic_fetch_or_1; };
0x495222260E5EA696 { global: _Atomic_fetch_or_2; };
0x4795F58B5CDC6A92 { global: _Atomic_fetch_or_4; };
0xFBE227DCF1C165FC { global: _Atomic_fetch_or_8; };
0x0065FAF465085E83 { global: _Atomic_fetch_sub_1; };
0xA2FB7087C20EDC71 { global: _Atomic_fetch_sub_2; };
0xD879E62A22E657AB { global: _Atomic_fetch_sub_4; };
0x4FC947F315C4C08C { global: _Atomic_fetch_sub_8; };
0x67D81BCDFEDF90C5 { global: _Atomic_fetch_xor_1; };
0xAE9978AE1A5485F8 { global: _Atomic_fetch_xor_2; };
0x00195123D9038310 { global: _Atomic_fetch_xor_4; };
0x5CA7A7141B288757 { global: _Atomic_fetch_xor_8; };
0xE0255CE86F09AEF4 { global: _Atomic_flag_clear; };
0x3AEE90743CB57FB8 { global: _Atomic_flag_test_and_set; };
0x4413E109C461C862 { global: _Atomic_is_lock_free_1; };
0x42139161A3644BE5 { global: _Atomic_is_lock_free_2; };
0x711632C5D668D584 { global: _Atomic_is_lock_free_4; };
0x00DD9BA30FB257F5 { global: _Atomic_is_lock_free_8; };
0x5C0A8013CD37CCC8 { global: _Atomic_load_1; };
0x6985444D1DC1F309 { global: _Atomic_load_2; };
0x723644BB31E48278 { global: _Atomic_load_4; };
0x0079AAD51F23377A { global: _Atomic_load_8; };
0x1DF290E990F9DEC3 { global: _Atomic_signal_fence; };
0x5515FE525D684A01 { global: _Atomic_store_1; };
0xE9647AB05C5C778D { global: _Atomic_store_2; };
0x1CC44C2CEC0E1484 { global: _Atomic_store_4; };
0xDAE2B15C700ACA72 { global: _Atomic_store_8; };
0x0000000000000000 { global: _Atomic_thread_fence; };
0x33A9C2CBA1FC1ECE { global: _Atqexit; };
0x20788ADE52FB0AF2 { global: _Atthreadexit; };
0x68CB9CC5AAE2360F { global: _Btowc; };
0xCA4345E8FDD9B1D0 { global: _CStrftime; };
0x00C1EBD0040BA057 { global: _CStrxfrm; };
0xE9A11700F6296840 { global: _CWcsxfrm; };
0x7EDB6217BAC375A9 { global: _Call_once; };
0x1B590393EE4BE9D5 { global: _Call_onceEx; };
0x9A0346C66265B4E6 { global: _Closreg; };
0x56C3F775A2609950 { global: _Cnd_broadcast; };
0xEF230581C4BC10F0 { global: _Cnd_destroy; };
0xBF22E8B6E07A012E { global: _Cnd_do_broadcast_at_thread_exit; };
0x4AB799C9B4915A95 { global: _Cnd_init; };
0xD81F95DEA0AACF8B { global: _Cnd_init_with_name; };
0x0D5D80759145121F { global: _Cnd_register_at_thread_exit; };
0xD2EBAA811CFDA9FA { global: _Cnd_signal; };
0x31C688996297A278 { global: _Cnd_timedwait; };
0xC29B88895A0259C3 { global: _Cnd_unregister_at_thread_exit; };
0x00BC46AA13B21961 { global: _Cnd_wait; };
0x0029E399D7D5FC52 { global: _Cosh; };
0x665B2845AEE972E2 { global: _Daysto; };
0xFB93AE2D8A51076F { global: _Dclass; };
0x1F41509D25A9D5EB { global: _Deletegloballocale; };
0x00BF222B444690D2 { global: _Dint; };
0x54685C7744308616 { global: _Divide; };
0x340A58CA713395CA { global: _Dnorm; };
0xE10C3167753438AD { global: _Do_call; };
0x14C53B8D18580915 { global: _Dscale; };
0xCEF97A9EBBDDD2C1 { global: _Dsign; };
0x00BC240B6AF8F708 { global: _Dtento; };
0x006F14D6460235AB { global: _Dtest; };
0xE16B79BB31CEF7CA { global: _Dunscale; };
0x006905111E08C7A3 { global: _Erfc; };
0xC198B9972DA0B8DC { global: _Exit; };
0x00C8BF7560359305 { global: _Exp; };
0xBACDDB0E70F377BD { global: _FAtan; };
0x3DD9C5085A8A1AA0 { global: _FCosh; };
0x002D2A7EAFB256C1 { global: _FDclass; };
0x1DCA660676354461 { global: _FDint; };
0x7EECF3055769446D { global: _FDivide; };
0xD0DC02999BFB5DC5 { global: _FDnorm; };
0x492BD8EA94D10209 { global: _FDscale; };
0xE9E8B57909F65887 { global: _FDsign; };
0x4A8367C78123C70F { global: _FDtento; };
0x9A7B9F3E561B9CDD { global: _FDtest; };
0xE354AA26F39EF250 { global: _FDunscale; };
0x00AB047582DA564B { global: _FErfc; };
0x00DE9539CB5BAD98 { global: _FExp; };
0x10191A6F7B3C26DA { global: _FFpcomp; };
0x0D2D371233C3B45A { global: _FHypot; };
0x8E38D14BB97530F3 { global: _FLog; };
0x380137614DFDE984 { global: _FLogpoly; };
0x71FA513F787D17AA { global: _FPlsw; };
0x21D5A167448CEC90 { global: _FPmsw; };
0xE40377BE14D9EDFF { global: _FPoly; };
0x03DF16DC869DEB11 { global: _FPow; };
0xCBD52BE93D00D29F { global: _FQuad; };
0x3C341B105715E21D { global: _FQuadph; };
0x94FF737EB86DA417 { global: _FRecip; };
0x4CBBC06262ED755C { global: _FRint; };
0x66D8ECA64250FAFC { global: _FSin; };
0x7D0F925AB4144018 { global: _FSincos; };
0x3B82FED2808DF730 { global: _FSinh; };
0x881AD32640E542FF { global: _FTan; };
0x00A1D3C79D52EB16 { global: _FTgamma; };
0xD44C87C73733E803 { global: _FXp_addh; };
0xD5BF8884F4D7D279 { global: _FXp_addx; };
0x7B5CBB2950324AB6 { global: _FXp_getw; };
0x395A96E2E1254AB7 { global: _FXp_invx; };
0xEC68062319B003A2 { global: _FXp_ldexpx; };
0x0D566611DD22A528 { global: _FXp_movx; };
0x5BE96B2300105549 { global: _FXp_mulh; };
0xA35078764BDEB0C7 { global: _FXp_mulx; };
0x8A41D331E87AD01D { global: _FXp_setn; };
0xE73594551B51F318 { global: _FXp_setw; };
0xA4D588A5E1395AFE { global: _FXp_sqrtx; };
0x1C3F6F497AA3EB32 { global: _FXp_subx; };
0x721CE69E3C7156D9 { global: _Fac_tidy; };
0x0FE7E420B4BB10AD { global: _Fail_s; };
0xCF511FC4AE84D2DB { global: _Feraise; };
0x25B430E96EB65302 { global: _Fetch_add_8; };
0xA711674B5A244C51 { global: _Fetch_and_8; };
0xCD0408AE7A42A050 { global: _Fetch_and_seq_cst_1; };
0xC51394BA4EC8B4C3 { global: _Fetch_and_seq_cst_2; };
0x8D0BABB90B8C972A { global: _Fetch_and_seq_cst_4; };
0x8B15843A63816AF9 { global: _Fetch_or_8; };
0x00DBEE8ADAD59AA2 { global: _Fetch_or_seq_cst_1; };
0x007A0BB4F0627497 { global: _Fetch_or_seq_cst_2; };
0x00808F6E9F51DF66 { global: _Fetch_or_seq_cst_4; };
0x62168E7A788A7280 { global: _Fetch_xor_8; };
0x1366214FB9BBF643 { global: _Fetch_xor_seq_cst_1; };
0x7E05C9BCE4ABA9F8 { global: _Fetch_xor_seq_cst_2; };
0x72A718D7BB95DDD2 { global: _Fetch_xor_seq_cst_4; };
0x7582496F19F26FBE { global: _Fgpos; };
0x00268F4E3405FD79 { global: _Fltrounds; };
0xC464F831CE795624 { global: _Fofind; };
0x8D50EEBC4DECE41B { global: _Fofree; };
0x00B102FC0E38A8ED { global: _Fopen; };
0x7511159D99002911 { global: _Foprep; };
0xBE13CAC4DEB3B3E0 { global: _Fpcomp; };
0xF6CDCFF8B0AF58FF { global: _Frprep; };
0x03E637C5FAD62CBA { global: _Fspos; };
0xE05F694236E1F11F { global: _Fwprep; };
0xBDA928CB1F6792AA { global: _Genld; };
0x6D137D0731249B8A { global: _Gentime; };
0xD8C7CC6B7E39E852 { global: _Getcloc; };
0x008B5376F2159C0F { global: _Getctyptab; };
0x0025CBB45A5D576C { global: _Getdst; };
0x335C42D74D65B085 { global: _Geterrno; };
0x6C8B4400120D126D { global: _Getfld; };
0xEE214D36E3725F1C { global: _Getfloat; };
0xF09AF872F44CE843 { global: _Getgloballocale; };
0x3D6983A7C6534BD9 { global: _Getint; };
0x539D8194706F62F1 { global: _Getmbcurmax; };
0x6C5E1E58E339A2EA { global: _Getpcostate; };
0xB143F58416A8B8EC { global: _Getpctype; };
0x00431A8A21DA6E99 { global: _Getpmbstate; };
0xF315E210F6F2F21F { global: _Getptimes; };
0xD6E260A15AB76D05 { global: _Getptolower; };
0xADC40252BD046915 { global: _Getptoupper; };
0x873B1D8CA6C50FB8 { global: _Getpwcostate; };
0xCD2F78CB2251494B { global: _Getpwcstate; };
0x44B75C5A8063993E { global: _Getpwctrtab; };
0xB85F210ECD42A962 { global: _Getpwctytab; };
0x8B6C8DEB1070A28A { global: _Getstr; };
0x83CA33A7666BB23F { global: _Gettime; };
0x5B3F42BDC1798E7E { global: _Getzone; };
0xC146BEA0F42F159D { global: _Hypot; };
0x49BDBA3E23A216D1 { global: _Isdst; };
0x000B25ECDA5D6434 { global: _Iswctype; };
0xD80C37EBA267D3BB { global: _LAtan; };
0x9A80D278B4062454 { global: _LCosh; };
0x85D7068CDA5CAF8C { global: _LDclass; };
0x6A53567BC825407E { global: _LDint; };
0x1CF18B6FC428E9AB { global: _LDivide; };
0x95D6EB5AC424FB60 { global: _LDnorm; };
0x00B0C97C37104A7F { global: _LDscale; };
0x8AC9616B2F33196A { global: _LDsign; };
0x003C451201FA39FB { global: _LDtento; };
0x03ED585D6386A6EA { global: _LDtest; };
0x02B645D8A2126F99 { global: _LDunscale; };
0x3C6E0755EE17F8E7 { global: _LErfc; };
0xB1EDEE53B9513076 { global: _LExp; };
0x000702CFC44953ED { global: _LFpcomp; };
0x211505672C1B4D3D { global: _LHypot; };
0xE221604C377D345B { global: _LLog; };
0x9E23E2C63B34976C { global: _LLogpoly; };
0x0000000000000000 { global: _LPlsw; };
0x82CA395F4E821642 { global: _LPmsw; };
0x73A41AD0FDD72984 { global: _LPoly; };
0x00DD9F230C74CAAF { global: _LPow; };
0x7D708F4C34B4B43D { global: _LQuad; };
0x09B46197E4686043 { global: _LQuadph; };
0x5EB5D3B5103B534F { global: _LRecip; };
0x7C998EAF9F4AF106 { global: _LRint; };
0x00981BB94F3AFCD8 { global: _LSin; };
0x83774ADAA973C273 { global: _LSincos; };
0x656CBA21C06AB357 { global: _LSinh; };
0x98CE0E6E50FDC563 { global: _LTan; };
0x8EAE12ADF9F3F4AF { global: _LTgamma; };
0x00404ACFC4652889 { global: _LXp_addh; };
0x06E3FB6C33C611C4 { global: _LXp_addx; };
0x4E7B9B9530585D32 { global: _LXp_getw; };
0x140ADE5A8A5D06F1 { global: _LXp_invx; };
0x00ECEBE3B0779C6D { global: _LXp_ldexpx; };
0xC2511D492A9ACFE1 { global: _LXp_movx; };
0xAE27ADB340451CC6 { global: _LXp_mulh; };
0x2DB2E22C0D9B89A2 { global: _LXp_mulx; };
0x8630E867AA9B9264 { global: _LXp_setn; };
0x0090755770059B31 { global: _LXp_setw; };
0x20F8F0CB04CD47CC { global: _LXp_sqrtx; };
0x602571384D251CE2 { global: _LXp_subx; };
0xDC16C134F8DF9182 { global: _Ldtob; };
0xF86C6F7D22E1A00A { global: _Litob; };
0x7D15AE7D701C72E2 { global: _Lock_shared_ptr_spin_lock; };
0x000AFF31FBE192F4 { global: _Lock_spin_lock; };
0xBD9926266BEAB9E6 { global: _Lockfilelock; };
0x9002EF76012FE4C1 { global: _Locksyslock; };
0x00B18CD2C58F07E8 { global: _Locsum; };
0xE227E8F501AB3B9C { global: _Locterm; };
0x12553790463CABE2 { global: _Locvar; };
0xCD70A2EFC6D8AC42 { global: _Log; };
0x6EA712B4B446217C { global: _Logpoly; };
0xB530EAC2161B514A { global: _Makeloc; };
0x0274EDB91504D5C1 { global: _Makestab; };
0x41A944733CD236A7 { global: _Makewct; };
0xB228F73AD2691C57 { global: _Mbtowc; };
0x00F5222152BE08BA { global: _Mbtowcx; };
0x55843016CE020B86 { global: _Mtx_current_owns; };
0xE4B7F9D63BE88534 { global: _Mtx_destroy; };
0x61A1DCDC64BBCBB8 { global: _Mtx_init; };
0xB608A81A92AD99B1 { global: _Mtx_init_with_name; };
0x892E1A59B5289E5D { global: _Mtx_lock; };
0x84FCD849DE4D6AC7 { global: _Mtx_timedlock; };
0x93AA4634CC09074F { global: _Mtx_trylock; };
0x813B974303FDAEBB { global: _Mtx_unlock; };
0x2DA3DA03A998037F { global: _Mtxdst; };
0xCFB493785E9A6EE5 { global: _Mtxinit; };
0xA44E0EB7709F7D6D { global: _Mtxlock; };
0x70CC204929A9139A { global: _Mtxunlock; };
0x4ACDF5D3CA41B996 { global: _Nnl; };
0xD611A6061F3774BF { global: _Plsw; };
0x86BBF506033AF245 { global: _Pmsw; };
0x688354136C5B859E { global: _Poly; };
0x0010287EA4B446E9 { global: _Pow; };
0x0014CA1D433C27D7 { global: _Printf; };
0xAE7C5A43EDA148C2 { global: _Putfld; };
0x00168B66E8CDA828 { global: _Putstr; };
0x8A302AAB7F60E1D2 { global: _Puttxt; };
0x004D03EB21E3484B { global: _Quad; };
0x55E7112AE29D5DDA { global: _Quadph; };
0x3316782DCDF94628 { global: _Readloc; };
0x60B11CE6C3E7D518 { global: _Recip; };
0xEFBB96177676ABDD { global: _Restore_state; };
0x4F3C4345C9ECF5EE { global: _Rint; };
0xD084D7B893AAAD29 { global: _Save_state; };
0xB3E31E3076C1D51A { global: _Scanf; };
0x6C493E586394F742 { global: _Setgloballocale; };
0x7025E353BD99D0EC { global: _Sin; };
0x8FD4864CB725AE8F { global: _Sincos; };
0x314DB97AAC520D3C { global: _Sinh; };
0x269E9D666EF9E390 { global: _Skip; };
0x738D5410756D8840 { global: _Stod; };
0x4257096F277A8F13 { global: _Stodx; };
0x0A959C9EB1196CB0 { global: _Stof; };
0x00C0ED6899BA058E { global: _Stoflt; };
0x00EDD940C5E1E1B6 { global: _Stofx; };
0x88D6EDC8928CD224 { global: _Stold; };
0x04A89D0B198B0B9C { global: _Stoldx; };
0xEE934A72C70AADFF { global: _Stoll; };
0x98E9DF67968D0D01 { global: _Stollx; };
0x11CC2277AC093216 { global: _Stolx; };
0xCA16C5E8C6D5B987 { global: _Stopfx; };
0xCE57C41FC166C940 { global: _Stoul; };
0xABEF44D17DDA5A95 { global: _Stoull; };
0xA52A43083CB191A6 { global: _Stoullx; };
0x6039CB69ABFA5BA4 { global: _Stoulx; };
0x3AECF943CF9252AE { global: _Stoxflt; };
0x00BFAAD7612C5618 { global: _Strcollx; };
0xE05D75B4732925AD { global: _Strerror; };
0x0A9883D995EB84DA { global: _Strxfrmx; };
0xB3351FB748C445DA { global: _Tan; };
0x00CCEACD3A66FA92 { global: _Tgamma; };
0x24E5755D8E3B7900 { global: _Thrd_abort; };
0x4A4451E96C424DC1 { global: _Thrd_create; };
0x009F66F73BCAAFAA { global: _Thrd_current; };
0x2FB7FBCD8C01BD90 { global: _Thrd_detach; };
0x06757B5AB1DD3CB5 { global: _Thrd_equal; };
0x705B03F51E22639D { global: _Thrd_exit; };
0x9E9EB15DC5C49D71 { global: _Thrd_id; };
0x62F998E497F45585 { global: _Thrd_join; };
0x3826C9F7A375BAD0 { global: _Thrd_lt; };
0x8DF448DEC9E07B7A { global: _Thrd_sleep; };
0xD0989D37AABDC86A { global: _Thrd_start; };
0x82CA9709DEAC90AB { global: _Thrd_start_with_attr; };
0x8A17C6B232E398E3 { global: _Thrd_start_with_name; };
0x4A16A76C1594DC00 { global: _Thrd_start_with_name_attr; };
0x7B1373CC2010B963 { global: _Thrd_yield; };
0x0DB12703E327548C { global: _Towctrans; };
0x006A61F253BBFC7C { global: _Tss_create; };
0x839706ED0B4A2D30 { global: _Tss_delete; };
0x94E5509C4244CEF6 { global: _Tss_get; };
0x89BC85B746CFC939 { global: _Tss_set; };
0xE134DBA364B1C6F0 { global: _Ttotm; };
0x0ACC79D1453D6F5F { global: _Tzoff; };
0xD47604A0036A675C { global: _Unlock_shared_ptr_spin_lock; };
0x6875058A31169714 { global: _Unlock_spin_lock; };
0xD31EEBC7C4CACB66 { global: _Unlockfilelock; };
0xF677FC8E851349A4 { global: _Unlocksyslock; };
0xB3AD8C801868B235 { global: _Unwind_Backtrace; };
0xB044CD6F25AC107B { global: _Unwind_GetIP; };
0x7F5CF02778C02369 { global: _Unwind_Resume; };
0xC54B0948BB1DBFD2 { global: _Unwind_Resume_or_Rethrow; };
0xC51C9C7A42D85DD7 { global: _Vacopy; };
0x55B73381FC2049C0 { global: _WFrprep; };
0x843BB2516501AC35 { global: _WFwprep; };
0x000587178C6DCBC2 { global: _WGenld; };
0x67A082396F13655A { global: _WGetfld; };
0x2DC1EC2E7F7B91C1 { global: _WGetfloat; };
0x756CF71ED30CA4F8 { global: _WGetint; };
0x9D54BC507CF56F1D { global: _WGetstr; };
0x9147229E85B006BF { global: _WLdtob; };
0x5E44FA6124A141C1 { global: _WLitob; };
0x0092F10FE4A386D5 { global: _WPrintf; };
0xD084AE9AF6F6539A { global: _WPutfld; };
0x161D468F0AAF0A91 { global: _WPutstr; };
0x2A4820F26594D961 { global: _WPuttxt; };
0x7F38244882EA4471 { global: _WScanf; };
0xE27467F9EC542403 { global: _WStod; };
0x4657B04CDB5611C8 { global: _WStodx; };
0x00194BA239CC4BAF { global: _WStof; };
0x147265873D3056DB { global: _WStoflt; };
0x259F601A5276DA18 { global: _WStofx; };
0xC37811146463A59E { global: _WStold; };
0xC1A7B1A072F405FE { global: _WStoldx; };
0x3A60CF25E2579013 { global: _WStoll; };
0xE373D84367CC4FC9 { global: _WStopfx; };
0x261551EC3E00C7A6 { global: _WStoul; };
0x00F6208F8532F9CF { global: _WStoull; };
0x0E6508CBB9B47321 { global: _WStoxflt; };
0xC269171607AB2E73 { global: _Wcscollx; };
0x4467373F75127236 { global: _Wcsftime; };
0x72623253404D61EA { global: _Wcsxfrmx; };
0xA0AE82D5FCACDDD5 { global: _Wctob; };
0x6D2818D788F83AFE { global: _Wctomb; };
0xB2DBF54B704A7E0C { global: _Wctombx; };
0x8A373BC825F35EC7 { global: _Xp_addh; };
0xC9C302C859962675 { global: _Xp_addx; };
0x65BEF483D214B3DF { global: _Xp_getw; };
0x7F8D53E1C9469736 { global: _Xp_invx; };
0x73D4B4B570E13014 { global: _Xp_ldexpx; };
0x666D8B2D68315AEF { global: _Xp_movx; };
0x68EB690B7A27C89A { global: _Xp_mulh; };
0x8DAB5B1F2C47DDE9 { global: _Xp_mulx; };
0x95A85B078076BA06 { global: _Xp_setn; };
0x6C87C56AA530CB72 { global: _Xp_setw; };
0x9B4B923EB0AC55D9 { global: _Xp_sqrtx; };
0xC35EFCB8661B209B { global: _Xp_subx; };
0x000DFD413BAE2752 { global: _Xtime_diff_to_ts; };
0x0A3F85C39AB5B54A { global: _Xtime_get_ticks; };
0x0066CF17A9C7B7AD { global: _Xtime_to_ts; };
0x0A3CE35369C5516C { global: _ZN10__cxxabiv116__enum_type_infoD0Ev; };
0xBA9C12656998C2A1 { global: _ZN10__cxxabiv116__enum_type_infoD1Ev; };
0x890893DBAF991A70 { global: _ZN10__cxxabiv116__enum_type_infoD2Ev; };
0x4799D16CB413DE82 { global: _ZN10__cxxabiv117__array_type_infoD0Ev; };
0xD5931C86592F34D4 { global: _ZN10__cxxabiv117__array_type_infoD1Ev; };
0x72416BB320F6F37D { global: _ZN10__cxxabiv117__array_type_infoD2Ev; };
0x5C093B5B735CA536 { global: _ZN10__cxxabiv117__class_type_infoD0Ev; };
0x008282D5A837A221 { global: _ZN10__cxxabiv117__class_type_infoD1Ev; };
0x00C57335A9ACB0D9 { global: _ZN10__cxxabiv117__class_type_infoD2Ev; };
0x18BC43E6FDAE307C { global: _ZN10__cxxabiv117__pbase_type_infoD0Ev; };
0xBC824F0114BC8A61 { global: _ZN10__cxxabiv117__pbase_type_infoD1Ev; };
0x92BB2113824013A3 { global: _ZN10__cxxabiv117__pbase_type_infoD2Ev; };
0xEB8D7CD06C0C56BA { global: _ZN10__cxxabiv119__pointer_type_infoD0Ev; };
0x6E17E0ACAF8C65D9 { global: _ZN10__cxxabiv119__pointer_type_infoD1Ev; };
0xBC22D584E71D40C6 { global: _ZN10__cxxabiv119__pointer_type_infoD2Ev; };
0x915BC62FD685E608 { global: _ZN10__cxxabiv120__function_type_infoD0Ev; };
0x76C4395F0865F67A { global: _ZN10__cxxabiv120__function_type_infoD1Ev; };
0x36DA83E10D2F5142 { global: _ZN10__cxxabiv120__function_type_infoD2Ev; };
0x160E30FA1F7000C0 { global: _ZN10__cxxabiv120__si_class_type_infoD0Ev; };
0xE9A124C2410E1918 { global: _ZN10__cxxabiv120__si_class_type_infoD1Ev; };
0x6D61F0A2F5457EA7 { global: _ZN10__cxxabiv120__si_class_type_infoD2Ev; };
0x5B99348E5C81A603 { global: _ZN10__cxxabiv121__vmi_class_type_infoD0Ev; };
0x0085AEFED14B8AED { global: _ZN10__cxxabiv121__vmi_class_type_infoD1Ev; };
0xC9823299F4069761 { global: _ZN10__cxxabiv121__vmi_class_type_infoD2Ev; };
0x62C66EC19AC96655 { global: _ZN10__cxxabiv123__fundamental_type_infoD0Ev; };
0x93358BDA23ACBF41 { global: _ZN10__cxxabiv123__fundamental_type_infoD1Ev; };
0xD2393DA2A29DD86C { global: _ZN10__cxxabiv123__fundamental_type_infoD2Ev; };
0x0035D7837DF719DF { global: _ZN10__cxxabiv129__pointer_to_member_type_infoD0Ev; };
0x29A677C5FE5CF557 { global: _ZN10__cxxabiv129__pointer_to_member_type_infoD1Ev; };
0x45EDCBA64F26C04A { global: _ZN10__cxxabiv129__pointer_to_member_type_infoD2Ev; };
0x0000000000000000 { global: _ZN6Dinkum7codecvt10_Cvt_checkEmm; };
0x003C6D9979555664 { global: _ZN6Dinkum7threads10lock_errorD0Ev; };
0xBD7F8D7CE1CE239C { global: _ZN6Dinkum7threads10lock_errorD1Ev; };
0xA36EFEC4EE4D059F { global: _ZN6Dinkum7threads17_Throw_lock_errorEv; };
0x7239892DD6274F90 { global: _ZN6Dinkum7threads21_Throw_resource_errorEv; };
0x43E6673CC188E0CD { global: _ZN6Dinkum7threads21thread_resource_errorD0Ev; };
0x34E681EDAD4F665F { global: _ZN6Dinkum7threads21thread_resource_errorD1Ev; };
0x6514417AE2E61E37 { global: _ZNKSbIwSt11char_traitsIwESaIwEE5_XlenEv; };
0x001AF6196B1DE242 { global: _ZNKSbIwSt11char_traitsIwESaIwEE5_XranEv; };
0xA43B53749DAC233D { global: _ZNKSs5_XlenEv; };
0x0330673ADD43A2E5 { global: _ZNKSs5_XranEv; };
0x05B5F13604D6D71E { global: _ZNKSt10bad_typeid4whatEv; };
0x58CC3C788B349233 { global: _ZNKSt10bad_typeid8_DoraiseEv; };
0xFBE81EDE36251D6F { global: _ZNKSt11logic_error4whatEv; };
0x6133397B21468767 { global: _ZNKSt11logic_error8_DoraiseEv; };
0x3B3312D01A955064 { global: _ZNKSt12bad_weak_ptr4whatEv; };
0x003300324AA4E8F8 { global: _ZNKSt12codecvt_base11do_encodingEv; };
0x14EB18F890325E8C { global: _ZNKSt12codecvt_base13do_max_lengthEv; };
0x00E6C7DBB4D01DB4 { global: _ZNKSt12future_error4whatEv; };
0x00B323CE35A5A3AB { global: _ZNKSt12future_error8_DoraiseEv; };
0xB966414712C0BC48 { global: _ZNKSt12system_error8_DoraiseEv; };
0x913950638EDFA3CF { global: _ZNKSt13bad_exception8_DoraiseEv; };
0xDA25B916FFA4171B { global: _ZNKSt13runtime_error4whatEv; };
0xF6107C03022A41FB { global: _ZNKSt14error_category10equivalentERKSt10error_codei; };
0x1AD842970A90019B { global: _ZNKSt14error_category10equivalentEiRKSt15error_condition; };
0xF120E88EE67241A6 { global: _ZNKSt14error_category23default_error_conditionEi; };
0x0000000000000000 { global: _ZNKSt17bad_function_call4whatEv; };
0xFB920E42772E8B77 { global: _ZNKSt18bad_variant_access4whatEv; };
0xBBA51F193F7E1C40 { global: _ZNKSt19istreambuf_iteratorIcSt11char_traitsIcEE5equalERKS2_; };
0x008D998B0C0483B6 { global: _ZNKSt19istreambuf_iteratorIwSt11char_traitsIwEE5equalERKS2_; };
0x43456C5936A94383 { global: _ZNKSt22_Future_error_category4nameEv; };
0x9D67D9A650E36F14 { global: _ZNKSt22_Future_error_category7messageEi; };
0xC30DD4525DF5ECD8 { global: _ZNKSt22_System_error_category23default_error_conditionEi; };
0x757CBE9453A26900 { global: _ZNKSt22_System_error_category4nameEv; };
0x1E9025BE134A6F66 { global: _ZNKSt22_System_error_category7messageEi; };
0xC6F551D0204F1403 { global: _ZNKSt23_Generic_error_category4nameEv; };
0x299FBE7E296C08BE { global: _ZNKSt23_Generic_error_category7messageEi; };
0xB1BDAF8AFAAD2D2D { global: _ZNKSt24_Iostream_error_category4nameEv; };
0x0000000000000000 { global: _ZNKSt24_Iostream_error_category7messageEi; };
0xDB0FB8328D833EBA { global: _ZNKSt5ctypeIcE10do_tolowerEPcPKc; };
0x5973A808AFA4AB06 { global: _ZNKSt5ctypeIcE10do_tolowerEc; };
0xEE0962A07D2DF473 { global: _ZNKSt5ctypeIcE10do_toupperEPcPKc; };
0x9A7AB7B5B842B37E { global: _ZNKSt5ctypeIcE10do_toupperEc; };
0x5B93AD3FE582F34D { global: _ZNKSt5ctypeIcE8do_widenEPKcS2_Pc; };
0xCF070D413D00BDC9 { global: _ZNKSt5ctypeIcE8do_widenEc; };
0x009C2544DE40638C { global: _ZNKSt5ctypeIcE9do_narrowEPKcS2_cPc; };
0xE129C22662CBDBB5 { global: _ZNKSt5ctypeIcE9do_narrowEcc; };
0xA52433DB9E2DDEE8 { global: _ZNKSt5ctypeIwE10do_scan_isEsPKwS2_; };
0x123D17D44C00A703 { global: _ZNKSt5ctypeIwE10do_tolowerEPwPKw; };
0x013623EB3ADAE56D { global: _ZNKSt5ctypeIwE10do_tolowerEw; };
0x00AF558DB4E8BA13 { global: _ZNKSt5ctypeIwE10do_toupperEPwPKw; };
0x26C6630774E767C0 { global: _ZNKSt5ctypeIwE10do_toupperEw; };
0x29B7BE2C739EAFDA { global: _ZNKSt5ctypeIwE11do_scan_notEsPKwS2_; };
0x0F495430A53E10B2 { global: _ZNKSt5ctypeIwE5do_isEPKwS2_Ps; };
0x00AE1ECB4E588FA1 { global: _ZNKSt5ctypeIwE5do_isEsw; };
0x28CD1BE8EF2C868C { global: _ZNKSt5ctypeIwE8do_widenEPKcS2_Pw; };
0x008773DB9CD9D980 { global: _ZNKSt5ctypeIwE8do_widenEc; };
0x55FEBC2400F9ADB3 { global: _ZNKSt5ctypeIwE9do_narrowEPKwS2_cPc; };
0x57E73413E52A730C { global: _ZNKSt5ctypeIwE9do_narrowEwc; };
0x6943484AC3DBA2A1 { global: _ZNKSt7_MpunctIcE11do_groupingEv; };
0xB940EAD74CB845AC { global: _ZNKSt7_MpunctIcE13do_neg_formatEv; };
0x13AE21AFCC97A17C { global: _ZNKSt7_MpunctIcE13do_pos_formatEv; };
0x561CA3C09BA021EF { global: _ZNKSt7_MpunctIcE14do_curr_symbolEv; };
0x0B72C2F40E92AD51 { global: _ZNKSt7_MpunctIcE14do_frac_digitsEv; };
0xB598F8CAABB0BA12 { global: _ZNKSt7_MpunctIcE16do_decimal_pointEv; };
0x46ABBD3A690A63E3 { global: _ZNKSt7_MpunctIcE16do_negative_signEv; };
0x01166CCD82AF0D68 { global: _ZNKSt7_MpunctIcE16do_positive_signEv; };
0xE9A1704CDA6A4CFF { global: _ZNKSt7_MpunctIcE16do_thousands_sepEv; };
0x7240F9B08C68F82A { global: _ZNKSt7_MpunctIwE11do_groupingEv; };
0x533991F2539FCAA5 { global: _ZNKSt7_MpunctIwE13do_neg_formatEv; };
0xCC5D867CACC182A5 { global: _ZNKSt7_MpunctIwE13do_pos_formatEv; };
0xCA9AB98C53512090 { global: _ZNKSt7_MpunctIwE14do_curr_symbolEv; };
0x008A3C99847F588D { global: _ZNKSt7_MpunctIwE14do_frac_digitsEv; };
0xBFC3F55FCE32B456 { global: _ZNKSt7_MpunctIwE16do_decimal_pointEv; };
0xCE4502EF8689C691 { global: _ZNKSt7_MpunctIwE16do_negative_signEv; };
0x3D615E3E455DBFDC { global: _ZNKSt7_MpunctIwE16do_positive_signEv; };
0x5D7FB188F5C037C2 { global: _ZNKSt7_MpunctIwE16do_thousands_sepEv; };
0x73A2F273AC4EA78A { global: _ZNKSt7codecvtIDic9_MbstatetE10do_unshiftERS0_PcS3_RS3_; };
0x0C39EBDE50F05BC2 { global: _ZNKSt7codecvtIDic9_MbstatetE11do_encodingEv; };
0x13935DCEA1265AE6 { global: _ZNKSt7codecvtIDic9_MbstatetE13do_max_lengthEv; };
0x350F35119EC22FAC { global: _ZNKSt7codecvtIDic9_MbstatetE16do_always_noconvEv; };
0x3C9D940D7F53BF08 { global: _ZNKSt7codecvtIDic9_MbstatetE5do_inERS0_PKcS4_RS4_PDiS6_RS6_; };
0x7A85BAD3370B4FC4 { global: _ZNKSt7codecvtIDic9_MbstatetE6do_outERS0_PKDiS4_RS4_PcS6_RS6_; };
0x9BAAE37CBE1A31C0 { global: _ZNKSt7codecvtIDic9_MbstatetE9do_lengthERS0_PKcS4_m; };
0x004584C747CD5831 { global: _ZNKSt7codecvtIDsc9_MbstatetE10do_unshiftERS0_PcS3_RS3_; };
0x00328E8AA54C8D84 { global: _ZNKSt7codecvtIDsc9_MbstatetE11do_encodingEv; };
0x06F452D1C19377A2 { global: _ZNKSt7codecvtIDsc9_MbstatetE13do_max_lengthEv; };
0x0000000000000000 { global: _ZNKSt7codecvtIDsc9_MbstatetE16do_always_noconvEv; };
0xFAE3F00867E6247B { global: _ZNKSt7codecvtIDsc9_MbstatetE5do_inERS0_PKcS4_RS4_PDsS6_RS6_; };
0xD052B096FF621F57 { global: _ZNKSt7codecvtIDsc9_MbstatetE6do_outERS0_PKDsS4_RS4_PcS6_RS6_; };
0x9729C0A5F88FE8BC { global: _ZNKSt7codecvtIDsc9_MbstatetE9do_lengthERS0_PKcS4_m; };
0x8825A08DEA8C1EF8 { global: _ZNKSt7codecvtIcc9_MbstatetE10do_unshiftERS0_PcS3_RS3_; };
0xEED2300D9CB2287A { global: _ZNKSt7codecvtIcc9_MbstatetE16do_always_noconvEv; };
0x4CD7B11A5C225444 { global: _ZNKSt7codecvtIcc9_MbstatetE2inERS0_PKcS4_RS4_PcS6_RS6_; };
0xD78C4A8FE495EF6A { global: _ZNKSt7codecvtIcc9_MbstatetE3outERS0_PKcS4_RS4_PcS6_RS6_; };
0x3FEAB538B884ACFD { global: _ZNKSt7codecvtIcc9_MbstatetE5do_inERS0_PKcS4_RS4_PcS6_RS6_; };
0x0051CF92C74519DD { global: _ZNKSt7codecvtIcc9_MbstatetE6do_outERS0_PKcS4_RS4_PcS6_RS6_; };
0x8A406DD25AA4C4F7 { global: _ZNKSt7codecvtIcc9_MbstatetE6lengthERS0_PKcS4_m; };
0x37BCFE0E7935712D { global: _ZNKSt7codecvtIcc9_MbstatetE7unshiftERS0_PcS3_RS3_; };
0x5E4EC865C7C70C3F { global: _ZNKSt7codecvtIcc9_MbstatetE9do_lengthERS0_PKcS4_m; };
0xA03B46C6BCCB5CC5 { global: _ZNKSt7codecvtIwc9_MbstatetE10do_unshiftERS0_PcS3_RS3_; };
0xE1F3C8AC7FB3F84E { global: _ZNKSt7codecvtIwc9_MbstatetE11do_encodingEv; };
0xE414088D7ED8E585 { global: _ZNKSt7codecvtIwc9_MbstatetE13do_max_lengthEv; };
0x2A1788864692AE50 { global: _ZNKSt7codecvtIwc9_MbstatetE16do_always_noconvEv; };
0x5803E49AB5F1DA8F { global: _ZNKSt7codecvtIwc9_MbstatetE5do_inERS0_PKcS4_RS4_PwS6_RS6_; };
0x001144EF995B7037 { global: _ZNKSt7codecvtIwc9_MbstatetE6do_outERS0_PKwS4_RS4_PcS6_RS6_; };
0x1B5CDC3D412F63B5 { global: _ZNKSt7codecvtIwc9_MbstatetE9do_lengthERS0_PKcS4_m; };
0xD5E1177DE5BAC2B2 { global: _ZNKSt7collateIcE10do_compareEPKcS2_S2_S2_; };
0x00818945E7AEEBDC { global: _ZNKSt7collateIcE12do_transformEPKcS2_; };
0x00EAF617CC50E6AE { global: _ZNKSt7collateIcE4hashEPKcS2_; };
0x0043C950086323E2 { global: _ZNKSt7collateIcE7compareEPKcS2_S2_S2_; };
0x1920178B81754A53 { global: _ZNKSt7collateIcE7do_hashEPKcS2_; };
0x5DA4B12C19EA7161 { global: _ZNKSt7collateIcE9transformEPKcS2_; };
0xAE8CED9C512CE44B { global: _ZNKSt7collateIwE10do_compareEPKwS2_S2_S2_; };
0x006717A740C8311C { global: _ZNKSt7collateIwE12do_transformEPKwS2_; };
0x7A7B589E822EF9F7 { global: _ZNKSt7collateIwE4hashEPKwS2_; };
0x009F71C566F0F007 { global: _ZNKSt7collateIwE7compareEPKwS2_S2_S2_; };
0x7166820D6F8373D5 { global: _ZNKSt7collateIwE7do_hashEPKwS2_; };
0xF35B97ECFCEBB46F { global: _ZNKSt7collateIwE9transformEPKwS2_; };
0x009B2F6E8DAB26EB { global: _ZNKSt7num_getIcSt19istreambuf_iteratorIcSt11char_traitsIcEEE3getES3_S3_RSt8ios_baseRNSt5_IosbIiE8_IostateERPv; };
0x3963B9729370DCD0 { global: _ZNKSt7num_getIcSt19istreambuf_iteratorIcSt11char_traitsIcEEE3getES3_S3_RSt8ios_baseRNSt5_IosbIiE8_IostateERb; };
0x980C170A99166987 { global: _ZNKSt7num_getIcSt19istreambuf_iteratorIcSt11char_traitsIcEEE3getES3_S3_RSt8ios_baseRNSt5_IosbIiE8_IostateERd; };
0xC1409119AA758F45 { global: _ZNKSt7num_getIcSt19istreambuf_iteratorIcSt11char_traitsIcEEE3getES3_S3_RSt8ios_baseRNSt5_IosbIiE8_IostateERe; };
0xE911A4A284C446C1 { global: _ZNKSt7num_getIcSt19istreambuf_iteratorIcSt11char_traitsIcEEE3getES3_S3_RSt8ios_baseRNSt5_IosbIiE8_IostateERf; };
0x37556A516CF63842 { global: _ZNKSt7num_getIcSt19istreambuf_iteratorIcSt11char_traitsIcEEE3getES3_S3_RSt8ios_baseRNSt5_IosbIiE8_IostateERj; };
0x236533C24C3010FB { global: _ZNKSt7num_getIcSt19istreambuf_iteratorIcSt11char_traitsIcEEE3getES3_S3_RSt8ios_baseRNSt5_IosbIiE8_IostateERl; };
0xD9B7CBDF22018B99 { global: _ZNKSt7num_getIcSt19istreambuf_iteratorIcSt11char_traitsIcEEE3getES3_S3_RSt8ios_baseRNSt5_IosbIiE8_IostateERm; };
0x828CECA78BABBEAF { global: _ZNKSt7num_getIcSt19istreambuf_iteratorIcSt11char_traitsIcEEE3getES3_S3_RSt8ios_baseRNSt5_IosbIiE8_IostateERt; };
0xE218902BCD90B8B7 { global: _ZNKSt7num_getIcSt19istreambuf_iteratorIcSt11char_traitsIcEEE3getES3_S3_RSt8ios_baseRNSt5_IosbIiE8_IostateERx; };
0x7997C52F258292F8 { global: _ZNKSt7num_getIcSt19istreambuf_iteratorIcSt11char_traitsIcEEE3getES3_S3_RSt8ios_baseRNSt5_IosbIiE8_IostateERy; };
0x54A757144EEE6A5C { global: _ZNKSt7num_getIcSt19istreambuf_iteratorIcSt11char_traitsIcEEE6do_getES3_S3_RSt8ios_baseRNSt5_IosbIiE8_IostateERPv; };
0x4A6B4134375AE6A5 { global: _ZNKSt7num_getIcSt19istreambuf_iteratorIcSt11char_traitsIcEEE6do_getES3_S3_RSt8ios_baseRNSt5_IosbIiE8_IostateERb; };
0x006CD42919E2A882 { global: _ZNKSt7num_getIcSt19istreambuf_iteratorIcSt11char_traitsIcEEE6do_getES3_S3_RSt8ios_baseRNSt5_IosbIiE8_IostateERd; };
0xBAE9166D84BA067E { global: _ZNKSt7num_getIcSt19istreambuf_iteratorIcSt11char_traitsIcEEE6do_getES3_S3_RSt8ios_baseRNSt5_IosbIiE8_IostateERe; };
0x227B409C56FEB70D { global: _ZNKSt7num_getIcSt19istreambuf_iteratorIcSt11char_traitsIcEEE6do_getES3_S3_RSt8ios_baseRNSt5_IosbIiE8_IostateERf; };
0xCB026935EEBBE73A { global: _ZNKSt7num_getIcSt19istreambuf_iteratorIcSt11char_traitsIcEEE6do_getES3_S3_RSt8ios_baseRNSt5_IosbIiE8_IostateERj; };
0x00B11780BC7D7EA5 { global: _ZNKSt7num_getIcSt19istreambuf_iteratorIcSt11char_traitsIcEEE6do_getES3_S3_RSt8ios_baseRNSt5_IosbIiE8_IostateERl; };
0x3EAE0F906D31D5F9 { global: _ZNKSt7num_getIcSt19istreambuf_iteratorIcSt11char_traitsIcEEE6do_getES3_S3_RSt8ios_baseRNSt5_IosbIiE8_IostateERm; };
0x751BB644B9F848A3 { global: _ZNKSt7num_getIcSt19istreambuf_iteratorIcSt11char_traitsIcEEE6do_getES3_S3_RSt8ios_baseRNSt5_IosbIiE8_IostateERt; };
0x17E026543154CAA3 { global: _ZNKSt7num_getIcSt19istreambuf_iteratorIcSt11char_traitsIcEEE6do_getES3_S3_RSt8ios_baseRNSt5_IosbIiE8_IostateERx; };
0x4ED6227CAB559180 { global: _ZNKSt7num_getIcSt19istreambuf_iteratorIcSt11char_traitsIcEEE6do_getES3_S3_RSt8ios_baseRNSt5_IosbIiE8_IostateERy; };
0x00E3ECBCD8DB03C3 { global: _ZNKSt7num_getIcSt19istreambuf_iteratorIcSt11char_traitsIcEEE8_GetffldEPcRS3_S6_RSt8ios_basePi; };
0x001BD2C1D580F9C5 { global: _ZNKSt7num_getIcSt19istreambuf_iteratorIcSt11char_traitsIcEEE8_GetifldEPcRS3_S6_NSt5_IosbIiE9_FmtflagsERKSt6locale; };
0x002742363ED89973 { global: _ZNKSt7num_getIcSt19istreambuf_iteratorIcSt11char_traitsIcEEE9_GetffldxEPcRS3_S6_RSt8ios_basePi; };
0xCE89AF010E5115D0 { global: _ZNKSt7num_getIwSt19istreambuf_iteratorIwSt11char_traitsIwEEE3getES3_S3_RSt8ios_baseRNSt5_IosbIiE8_IostateERPv; };
0x00BD69E757AD9E6B { global: _ZNKSt7num_getIwSt19istreambuf_iteratorIwSt11char_traitsIwEEE3getES3_S3_RSt8ios_baseRNSt5_IosbIiE8_IostateERb; };
0xFA18D71DFBF2D4C8 { global: _ZNKSt7num_getIwSt19istreambuf_iteratorIwSt11char_traitsIwEEE3getES3_S3_RSt8ios_baseRNSt5_IosbIiE8_IostateERd; };
0xC4B66BE0625130BA { global: _ZNKSt7num_getIwSt19istreambuf_iteratorIwSt11char_traitsIwEEE3getES3_S3_RSt8ios_baseRNSt5_IosbIiE8_IostateERe; };
0xDA66FC15880447E1 { global: _ZNKSt7num_getIwSt19istreambuf_iteratorIwSt11char_traitsIwEEE3getES3_S3_RSt8ios_baseRNSt5_IosbIiE8_IostateERf; };
0x6378415391589A13 { global: _ZNKSt7num_getIwSt19istreambuf_iteratorIwSt11char_traitsIwEEE3getES3_S3_RSt8ios_baseRNSt5_IosbIiE8_IostateERj; };
0x009B660FC150B025 { global: _ZNKSt7num_getIwSt19istreambuf_iteratorIwSt11char_traitsIwEEE3getES3_S3_RSt8ios_baseRNSt5_IosbIiE8_IostateERl; };
0xF7864BA76F803AAD { global: _ZNKSt7num_getIwSt19istreambuf_iteratorIwSt11char_traitsIwEEE3getES3_S3_RSt8ios_baseRNSt5_IosbIiE8_IostateERm; };
0x6D9FA52871AF3ABF { global: _ZNKSt7num_getIwSt19istreambuf_iteratorIwSt11char_traitsIwEEE3getES3_S3_RSt8ios_baseRNSt5_IosbIiE8_IostateERt; };
0x706E614218C51A88 { global: _ZNKSt7num_getIwSt19istreambuf_iteratorIwSt11char_traitsIwEEE3getES3_S3_RSt8ios_baseRNSt5_IosbIiE8_IostateERx; };
0x6DA9CD4AE99A019D { global: _ZNKSt7num_getIwSt19istreambuf_iteratorIwSt11char_traitsIwEEE3getES3_S3_RSt8ios_baseRNSt5_IosbIiE8_IostateERy; };
0x0004D66A991BC34B { global: _ZNKSt7num_getIwSt19istreambuf_iteratorIwSt11char_traitsIwEEE6do_getES3_S3_RSt8ios_baseRNSt5_IosbIiE8_IostateERPv; };
0xC0453CA05B415D3F { global: _ZNKSt7num_getIwSt19istreambuf_iteratorIwSt11char_traitsIwEEE6do_getES3_S3_RSt8ios_baseRNSt5_IosbIiE8_IostateERb; };
0xB77F5D2A93C4B950 { global: _ZNKSt7num_getIwSt19istreambuf_iteratorIwSt11char_traitsIwEEE6do_getES3_S3_RSt8ios_baseRNSt5_IosbIiE8_IostateERd; };
0x302B49F43EC1E42B { global: _ZNKSt7num_getIwSt19istreambuf_iteratorIwSt11char_traitsIwEEE6do_getES3_S3_RSt8ios_baseRNSt5_IosbIiE8_IostateERe; };
0x1B2DA2471A772C69 { global: _ZNKSt7num_getIwSt19istreambuf_iteratorIwSt11char_traitsIwEEE6do_getES3_S3_RSt8ios_baseRNSt5_IosbIiE8_IostateERf; };
0xD9B5146DB72A1D4A { global: _ZNKSt7num_getIwSt19istreambuf_iteratorIwSt11char_traitsIwEEE6do_getES3_S3_RSt8ios_baseRNSt5_IosbIiE8_IostateERj; };
0x428B2C5DDC1696D2 { global: _ZNKSt7num_getIwSt19istreambuf_iteratorIwSt11char_traitsIwEEE6do_getES3_S3_RSt8ios_baseRNSt5_IosbIiE8_IostateERl; };
0x8A0E9246BD46094E { global: _ZNKSt7num_getIwSt19istreambuf_iteratorIwSt11char_traitsIwEEE6do_getES3_S3_RSt8ios_baseRNSt5_IosbIiE8_IostateERm; };
0x914ECFBC924A5278 { global: _ZNKSt7num_getIwSt19istreambuf_iteratorIwSt11char_traitsIwEEE6do_getES3_S3_RSt8ios_baseRNSt5_IosbIiE8_IostateERt; };
0x003AEEC6579D6783 { global: _ZNKSt7num_getIwSt19istreambuf_iteratorIwSt11char_traitsIwEEE6do_getES3_S3_RSt8ios_baseRNSt5_IosbIiE8_IostateERx; };
0xAD82EB185A2A7E2E { global: _ZNKSt7num_getIwSt19istreambuf_iteratorIwSt11char_traitsIwEEE6do_getES3_S3_RSt8ios_baseRNSt5_IosbIiE8_IostateERy; };
0x5B95589DC1DDADEA { global: _ZNKSt7num_getIwSt19istreambuf_iteratorIwSt11char_traitsIwEEE8_GetffldEPcRS3_S6_RSt8ios_basePi; };
0x186A88578723CF32 { global: _ZNKSt7num_getIwSt19istreambuf_iteratorIwSt11char_traitsIwEEE8_GetifldEPcRS3_S6_NSt5_IosbIiE9_FmtflagsERKSt6locale; };
0x6D9D2810641428EF { global: _ZNKSt7num_getIwSt19istreambuf_iteratorIwSt11char_traitsIwEEE9_GetffldxEPcRS3_S6_RSt8ios_basePi; };
0xF0D55472E7DB9253 { global: _ZNKSt7num_putIcSt19ostreambuf_iteratorIcSt11char_traitsIcEEE3putES3_RSt8ios_basecPKv; };
0x9DFB62AE6A3A8418 { global: _ZNKSt7num_putIcSt19ostreambuf_iteratorIcSt11char_traitsIcEEE3putES3_RSt8ios_basecb; };
0xC3D3730980231294 { global: _ZNKSt7num_putIcSt19ostreambuf_iteratorIcSt11char_traitsIcEEE3putES3_RSt8ios_basecd; };
0x0054F7131802F04A { global: _ZNKSt7num_putIcSt19ostreambuf_iteratorIcSt11char_traitsIcEEE3putES3_RSt8ios_basece; };
0x7DF9E18741DCC49E { global: _ZNKSt7num_putIcSt19ostreambuf_iteratorIcSt11char_traitsIcEEE3putES3_RSt8ios_basecl; };
0xB8E0EE33BEAF4B85 { global: _ZNKSt7num_putIcSt19ostreambuf_iteratorIcSt11char_traitsIcEEE3putES3_RSt8ios_basecm; };
0x349B4AAEEBBDA8EB { global: _ZNKSt7num_putIcSt19ostreambuf_iteratorIcSt11char_traitsIcEEE3putES3_RSt8ios_basecx; };
0x75EA7A5B6231DF9B { global: _ZNKSt7num_putIcSt19ostreambuf_iteratorIcSt11char_traitsIcEEE3putES3_RSt8ios_basecy; };
0x93CCE08DE066A556 { global: _ZNKSt7num_putIcSt19ostreambuf_iteratorIcSt11char_traitsIcEEE4_PutES3_PKcm; };
0xB428A12ECE142714 { global: _ZNKSt7num_putIcSt19ostreambuf_iteratorIcSt11char_traitsIcEEE4_RepES3_cm; };
0x00C35D46E7CBB8A7 { global: _ZNKSt7num_putIcSt19ostreambuf_iteratorIcSt11char_traitsIcEEE5_FfmtEPccNSt5_IosbIiE9_FmtflagsE; };
0x965F7D2A4A8EEA28 { global: _ZNKSt7num_putIcSt19ostreambuf_iteratorIcSt11char_traitsIcEEE5_FputES3_RSt8ios_basecPKcm; };
0x98D93A15F23C4FB2 { global: _ZNKSt7num_putIcSt19ostreambuf_iteratorIcSt11char_traitsIcEEE5_FputES3_RSt8ios_basecPKcmmmm; };
0xC65800D35090B41A { global: _ZNKSt7num_putIcSt19ostreambuf_iteratorIcSt11char_traitsIcEEE5_IfmtEPcPKcNSt5_IosbIiE9_FmtflagsE; };
0x008F291355641505 { global: _ZNKSt7num_putIcSt19ostreambuf_iteratorIcSt11char_traitsIcEEE5_IputES3_RSt8ios_basecPcm; };
0xD3180544A7F42DCE { global: _ZNKSt7num_putIcSt19ostreambuf_iteratorIcSt11char_traitsIcEEE6do_putES3_RSt8ios_basecPKv; };
0x91EDFA1366EA3662 { global: _ZNKSt7num_putIcSt19ostreambuf_iteratorIcSt11char_traitsIcEEE6do_putES3_RSt8ios_basecb; };
0x17E729D81DDC58D5 { global: _ZNKSt7num_putIcSt19ostreambuf_iteratorIcSt11char_traitsIcEEE6do_putES3_RSt8ios_basecd; };
0xACB885738F87C87C { global: _ZNKSt7num_putIcSt19ostreambuf_iteratorIcSt11char_traitsIcEEE6do_putES3_RSt8ios_basece; };
0x237FB19815863C6A { global: _ZNKSt7num_putIcSt19ostreambuf_iteratorIcSt11char_traitsIcEEE6do_putES3_RSt8ios_basecl; };
0x9E5024E3AC1EAB5C { global: _ZNKSt7num_putIcSt19ostreambuf_iteratorIcSt11char_traitsIcEEE6do_putES3_RSt8ios_basecm; };
0x1F62864F7BC0EF24 { global: _ZNKSt7num_putIcSt19ostreambuf_iteratorIcSt11char_traitsIcEEE6do_putES3_RSt8ios_basecx; };
0x55B7A87EDEB4EDA2 { global: _ZNKSt7num_putIcSt19ostreambuf_iteratorIcSt11char_traitsIcEEE6do_putES3_RSt8ios_basecy; };
0xC5F39209B0A2638E { global: _ZNKSt7num_putIwSt19ostreambuf_iteratorIwSt11char_traitsIwEEE3putES3_RSt8ios_basewPKv; };
0x998F455A8A31A896 { global: _ZNKSt7num_putIwSt19ostreambuf_iteratorIwSt11char_traitsIwEEE3putES3_RSt8ios_basewb; };
0x57B688B1522C2080 { global: _ZNKSt7num_putIwSt19ostreambuf_iteratorIwSt11char_traitsIwEEE3putES3_RSt8ios_basewd; };
0xBC220519E23A69D2 { global: _ZNKSt7num_putIwSt19ostreambuf_iteratorIwSt11char_traitsIwEEE3putES3_RSt8ios_basewe; };
0x5122E15A9EEC6685 { global: _ZNKSt7num_putIwSt19ostreambuf_iteratorIwSt11char_traitsIwEEE3putES3_RSt8ios_basewl; };
0xAADA7377030C08F7 { global: _ZNKSt7num_putIwSt19ostreambuf_iteratorIwSt11char_traitsIwEEE3putES3_RSt8ios_basewm; };
0xAF2CA46C7274E02C { global: _ZNKSt7num_putIwSt19ostreambuf_iteratorIwSt11char_traitsIwEEE3putES3_RSt8ios_basewx; };
0x9666F7A01A4C34F5 { global: _ZNKSt7num_putIwSt19ostreambuf_iteratorIwSt11char_traitsIwEEE3putES3_RSt8ios_basewy; };
0x911195862B2380C8 { global: _ZNKSt7num_putIwSt19ostreambuf_iteratorIwSt11char_traitsIwEEE4_PutES3_PKwm; };
0x006FE02FA9ADAFF6 { global: _ZNKSt7num_putIwSt19ostreambuf_iteratorIwSt11char_traitsIwEEE4_RepES3_wm; };
0x4F4ECA7003A521E5 { global: _ZNKSt7num_putIwSt19ostreambuf_iteratorIwSt11char_traitsIwEEE5_FfmtEPccNSt5_IosbIiE9_FmtflagsE; };
0x0021D56D5DE8C419 { global: _ZNKSt7num_putIwSt19ostreambuf_iteratorIwSt11char_traitsIwEEE5_FputES3_RSt8ios_basewPKcm; };
0x07A25754E303765C { global: _ZNKSt7num_putIwSt19ostreambuf_iteratorIwSt11char_traitsIwEEE5_FputES3_RSt8ios_basewPKcmmmm; };
0x5A1785491959F490 { global: _ZNKSt7num_putIwSt19ostreambuf_iteratorIwSt11char_traitsIwEEE5_IfmtEPcPKcNSt5_IosbIiE9_FmtflagsE; };
0xE29437075053320A { global: _ZNKSt7num_putIwSt19ostreambuf_iteratorIwSt11char_traitsIwEEE5_IputES3_RSt8ios_basewPcm; };
0x043B5E1A3D60A816 { global: _ZNKSt7num_putIwSt19ostreambuf_iteratorIwSt11char_traitsIwEEE6do_putES3_RSt8ios_basewPKv; };
0x00D42DB6581F4D37 { global: _ZNKSt7num_putIwSt19ostreambuf_iteratorIwSt11char_traitsIwEEE6do_putES3_RSt8ios_basewb; };
0xB17DE8E999A2870D { global: _ZNKSt7num_putIwSt19ostreambuf_iteratorIwSt11char_traitsIwEEE6do_putES3_RSt8ios_basewd; };
0xE8E6162E2B1FAC1F { global: _ZNKSt7num_putIwSt19ostreambuf_iteratorIwSt11char_traitsIwEEE6do_putES3_RSt8ios_basewe; };
0x569C2139EE7CC2C3 { global: _ZNKSt7num_putIwSt19ostreambuf_iteratorIwSt11char_traitsIwEEE6do_putES3_RSt8ios_basewl; };
0x8C7A3BF0B184B665 { global: _ZNKSt7num_putIwSt19ostreambuf_iteratorIwSt11char_traitsIwEEE6do_putES3_RSt8ios_basewm; };
0xF52487AE521A9ADA { global: _ZNKSt7num_putIwSt19ostreambuf_iteratorIwSt11char_traitsIwEEE6do_putES3_RSt8ios_basewx; };
0xB97D272AC528F207 { global: _ZNKSt7num_putIwSt19ostreambuf_iteratorIwSt11char_traitsIwEEE6do_putES3_RSt8ios_basewy; };
0x00E823F0A2270564 { global: _ZNKSt8bad_cast4whatEv; };
0x3447A654978CC1DD { global: _ZNKSt8bad_cast8_DoraiseEv; };
0x176EF141406D35D5 { global: _ZNKSt8ios_base7failure8_DoraiseEv; };
0x5F1B0FAEB589E762 { global: _ZNKSt8messagesIcE3getEiiiRKSs; };
0x536B7E5AF3108FC0 { global: _ZNKSt8messagesIcE4openERKSsRKSt6locale; };
0x11E050EF6E772E41 { global: _ZNKSt8messagesIcE5closeEi; };
0xBDB802B982B248B2 { global: _ZNKSt8messagesIcE6do_getEiiiRKSs; };
0x1DE07078F32DB85B { global: _ZNKSt8messagesIcE7do_openERKSsRKSt6locale; };
0xAD198C5FCDD42F51 { global: _ZNKSt8messagesIcE8do_closeEi; };
0x11AF9AC2E439066F { global: _ZNKSt8messagesIwE3getEiiiRKSbIwSt11char_traitsIwESaIwEE; };
0x4CFAB41DFA0009E2 { global: _ZNKSt8messagesIwE4openERKSsRKSt6locale; };
0x186A07EDEE926526 { global: _ZNKSt8messagesIwE5closeEi; };
0x50CEAB190C6710C8 { global: _ZNKSt8messagesIwE6do_getEiiiRKSbIwSt11char_traitsIwESaIwEE; };
0xCD27A12DD1C8D050 { global: _ZNKSt8messagesIwE7do_openERKSsRKSt6locale; };
0x02393140196C38E6 { global: _ZNKSt8messagesIwE8do_closeEi; };
0x727373D9FB4DC045 { global: _ZNKSt8numpunctIcE11do_groupingEv; };
0x9D17F4550FBE384C { global: _ZNKSt8numpunctIcE11do_truenameEv; };
0xA332E2D22E2BE9DB { global: _ZNKSt8numpunctIcE12do_falsenameEv; };
0x9255B14369CA0076 { global: _ZNKSt8numpunctIcE13decimal_pointEv; };
0x40648896A7C85367 { global: _ZNKSt8numpunctIcE13thousands_sepEv; };
0x257CD018EB6E99D3 { global: _ZNKSt8numpunctIcE16do_decimal_pointEv; };
0xCEFD4432123B4757 { global: _ZNKSt8numpunctIcE16do_thousands_sepEv; };
0x256A651A1D8ED11B { global: _ZNKSt8numpunctIcE8groupingEv; };
0x7D752E644C3B0B6E { global: _ZNKSt8numpunctIcE8truenameEv; };
0x00DFE570500F103C { global: _ZNKSt8numpunctIcE9falsenameEv; };
0xD81989757DBAF642 { global: _ZNKSt8numpunctIwE11do_groupingEv; };
0x9EF4AC016EED717F { global: _ZNKSt8numpunctIwE11do_truenameEv; };
0x006A672DCD66C4B7 { global: _ZNKSt8numpunctIwE12do_falsenameEv; };
0x95E485C13659B84E { global: _ZNKSt8numpunctIwE13decimal_pointEv; };
0xD8E96DF60A8E6AE4 { global: _ZNKSt8numpunctIwE13thousands_sepEv; };
0x9B34650155FAE614 { global: _ZNKSt8numpunctIwE16do_decimal_pointEv; };
0x52D8FC4A1E4BD231 { global: _ZNKSt8numpunctIwE16do_thousands_sepEv; };
0x56C242A57A8C3C95 { global: _ZNKSt8numpunctIwE8groupingEv; };
0xDCCDB4A4BA3D19D9 { global: _ZNKSt8numpunctIwE8truenameEv; };
0x002C36CA92021366 { global: _ZNKSt8numpunctIwE9falsenameEv; };
0x4A1950718AF3445F { global: _ZNKSt8time_getIcSt19istreambuf_iteratorIcSt11char_traitsIcEEE10date_orderEv; };
0x4FCE6EDAC3EB28EA { global: _ZNKSt8time_getIcSt19istreambuf_iteratorIcSt11char_traitsIcEEE11do_get_dateES3_S3_RSt8ios_baseRNSt5_IosbIiE8_IostateEP2tm; };
0xEF7195FAC4476DE6 { global: _ZNKSt8time_getIcSt19istreambuf_iteratorIcSt11char_traitsIcEEE11do_get_timeES3_S3_RSt8ios_baseRNSt5_IosbIiE8_IostateEP2tm; };
0x7527CA378EE9E9A7 { global: _ZNKSt8time_getIcSt19istreambuf_iteratorIcSt11char_traitsIcEEE11do_get_yearES3_S3_RSt8ios_baseRNSt5_IosbIiE8_IostateEP2tm; };
0x2B02795770F4BF70 { global: _ZNKSt8time_getIcSt19istreambuf_iteratorIcSt11char_traitsIcEEE11get_weekdayES3_S3_RSt8ios_baseRNSt5_IosbIiE8_IostateEP2tm; };
0xF0F221F011693584 { global: _ZNKSt8time_getIcSt19istreambuf_iteratorIcSt11char_traitsIcEEE13do_date_orderEv; };
0xBEF03B1ED76D5A76 { global: _ZNKSt8time_getIcSt19istreambuf_iteratorIcSt11char_traitsIcEEE13get_monthnameES3_S3_RSt8ios_baseRNSt5_IosbIiE8_IostateEP2tm; };
0xC736290F9776E1A0 { global: _ZNKSt8time_getIcSt19istreambuf_iteratorIcSt11char_traitsIcEEE14do_get_weekdayES3_S3_RSt8ios_baseRNSt5_IosbIiE8_IostateEP2tm; };
0x0066E0873C3A9D3F { global: _ZNKSt8time_getIcSt19istreambuf_iteratorIcSt11char_traitsIcEEE16do_get_monthnameES3_S3_RSt8ios_baseRNSt5_IosbIiE8_IostateEP2tm; };
0x4B959B3CEE789C3D { global: _ZNKSt8time_getIcSt19istreambuf_iteratorIcSt11char_traitsIcEEE3getES3_S3_RSt8ios_baseRNSt5_IosbIiE8_IostateEP2tmPKcSE_; };
0xF91B93870E5AC40E { global: _ZNKSt8time_getIcSt19istreambuf_iteratorIcSt11char_traitsIcEEE3getES3_S3_RSt8ios_baseRNSt5_IosbIiE8_IostateEP2tmcc; };
0x570D3791D29950DD { global: _ZNKSt8time_getIcSt19istreambuf_iteratorIcSt11char_traitsIcEEE6do_getES3_S3_RSt8ios_baseRNSt5_IosbIiE8_IostateEP2tmcc; };
0x13B51EAE63D955CC { global: _ZNKSt8time_getIcSt19istreambuf_iteratorIcSt11char_traitsIcEEE7_GetfmtES3_S3_RSt8ios_baseRNSt5_IosbIiE8_IostateEP2tmPKc; };
0xF2B6974D8435D5C8 { global: _ZNKSt8time_getIcSt19istreambuf_iteratorIcSt11char_traitsIcEEE7_GetintERS3_S5_iiRiRKSt5ctypeIcE; };
0x398E66A840713FEF { global: _ZNKSt8time_getIcSt19istreambuf_iteratorIcSt11char_traitsIcEEE8get_dateES3_S3_RSt8ios_baseRNSt5_IosbIiE8_IostateEP2tm; };
0xAEBA8D8BDE5B84CB { global: _ZNKSt8time_getIcSt19istreambuf_iteratorIcSt11char_traitsIcEEE8get_timeES3_S3_RSt8ios_baseRNSt5_IosbIiE8_IostateEP2tm; };
0xE4BE407EDFBD9D95 { global: _ZNKSt8time_getIcSt19istreambuf_iteratorIcSt11char_traitsIcEEE8get_yearES3_S3_RSt8ios_baseRNSt5_IosbIiE8_IostateEP2tm; };
0x9DCE8EB220F1EB7D { global: _ZNKSt8time_getIwSt19istreambuf_iteratorIwSt11char_traitsIwEEE10date_orderEv; };
0x4980B0657299434F { global: _ZNKSt8time_getIwSt19istreambuf_iteratorIwSt11char_traitsIwEEE11do_get_dateES3_S3_RSt8ios_baseRNSt5_IosbIiE8_IostateEP2tm; };
0x00DA9249D1D95A3D { global: _ZNKSt8time_getIwSt19istreambuf_iteratorIwSt11char_traitsIwEEE11do_get_timeES3_S3_RSt8ios_baseRNSt5_IosbIiE8_IostateEP2tm; };
0x711489CAC0E9565E { global: _ZNKSt8time_getIwSt19istreambuf_iteratorIwSt11char_traitsIwEEE11do_get_yearES3_S3_RSt8ios_baseRNSt5_IosbIiE8_IostateEP2tm; };
0x0343DFB5631FAE19 { global: _ZNKSt8time_getIwSt19istreambuf_iteratorIwSt11char_traitsIwEEE11get_weekdayES3_S3_RSt8ios_baseRNSt5_IosbIiE8_IostateEP2tm; };
0x74FD7838759EE272 { global: _ZNKSt8time_getIwSt19istreambuf_iteratorIwSt11char_traitsIwEEE13do_date_orderEv; };
0xC72D0C47E38E648F { global: _ZNKSt8time_getIwSt19istreambuf_iteratorIwSt11char_traitsIwEEE13get_monthnameES3_S3_RSt8ios_baseRNSt5_IosbIiE8_IostateEP2tm; };
0x84696487962970AC { global: _ZNKSt8time_getIwSt19istreambuf_iteratorIwSt11char_traitsIwEEE14do_get_weekdayES3_S3_RSt8ios_baseRNSt5_IosbIiE8_IostateEP2tm; };
0x4752131EE4D43042 { global: _ZNKSt8time_getIwSt19istreambuf_iteratorIwSt11char_traitsIwEEE16do_get_monthnameES3_S3_RSt8ios_baseRNSt5_IosbIiE8_IostateEP2tm; };
0x07C7383F5BC28B14 { global: _ZNKSt8time_getIwSt19istreambuf_iteratorIwSt11char_traitsIwEEE3getES3_S3_RSt8ios_baseRNSt5_IosbIiE8_IostateEP2tmPKwSE_; };
0xEB8A6AA1F0302448 { global: _ZNKSt8time_getIwSt19istreambuf_iteratorIwSt11char_traitsIwEEE3getES3_S3_RSt8ios_baseRNSt5_IosbIiE8_IostateEP2tmcc; };
0xD0CCC901EC6B96BE { global: _ZNKSt8time_getIwSt19istreambuf_iteratorIwSt11char_traitsIwEEE6do_getES3_S3_RSt8ios_baseRNSt5_IosbIiE8_IostateEP2tmcc; };
0xAFCD34DD5E94C198 { global: _ZNKSt8time_getIwSt19istreambuf_iteratorIwSt11char_traitsIwEEE7_GetfmtES3_S3_RSt8ios_baseRNSt5_IosbIiE8_IostateEP2tmPKc; };
0x009612569048475C { global: _ZNKSt8time_getIwSt19istreambuf_iteratorIwSt11char_traitsIwEEE7_GetintERS3_S5_iiRiRKSt5ctypeIwE; };
0x00930A74BA2747A7 { global: _ZNKSt8time_getIwSt19istreambuf_iteratorIwSt11char_traitsIwEEE8get_dateES3_S3_RSt8ios_baseRNSt5_IosbIiE8_IostateEP2tm; };
0x00F537C69CDEB1A9 { global: _ZNKSt8time_getIwSt19istreambuf_iteratorIwSt11char_traitsIwEEE8get_timeES3_S3_RSt8ios_baseRNSt5_IosbIiE8_IostateEP2tm; };
0x002ABB40EC49C71E { global: _ZNKSt8time_getIwSt19istreambuf_iteratorIwSt11char_traitsIwEEE8get_yearES3_S3_RSt8ios_baseRNSt5_IosbIiE8_IostateEP2tm; };
0x8FD2D4F06B2E106C { global: _ZNKSt8time_putIcSt19ostreambuf_iteratorIcSt11char_traitsIcEEE3putES3_RSt8ios_basecPK2tmPKcSB_; };
0x00AA4B80BA71FB3D { global: _ZNKSt8time_putIcSt19ostreambuf_iteratorIcSt11char_traitsIcEEE3putES3_RSt8ios_basecPK2tmcc; };
0xFA2F3516D5026AB0 { global: _ZNKSt8time_putIcSt19ostreambuf_iteratorIcSt11char_traitsIcEEE6do_putES3_RSt8ios_basecPK2tmcc; };
0x49CD255E1406E4AA { global: _ZNKSt8time_putIwSt19ostreambuf_iteratorIwSt11char_traitsIwEEE3putES3_RSt8ios_basewPK2tmPKwSB_; };
0x36DE9EC952A6F99E { global: _ZNKSt8time_putIwSt19ostreambuf_iteratorIwSt11char_traitsIwEEE3putES3_RSt8ios_basewPK2tmcc; };
0x16BEE3F1D32CCB8B { global: _ZNKSt8time_putIwSt19ostreambuf_iteratorIwSt11char_traitsIwEEE6do_putES3_RSt8ios_basewPK2tmcc; };
0xC6F46F16D9D49371 { global: _ZNKSt9bad_alloc4whatEv; };
0x00A52B7D0096E548 { global: _ZNKSt9bad_alloc8_DoraiseEv; };
0x6A93D9E8729959A4 { global: _ZNKSt9exception4whatEv; };
0x000EE5B966A66FEF { global: _ZNKSt9exception6_RaiseEv; };
0xB721DDDCFEE80EB5 { global: _ZNKSt9exception8_DoraiseEv; };
0xD9FC5D732B79B46B { global: _ZNKSt9money_getIcSt19istreambuf_iteratorIcSt11char_traitsIcEEE3getES3_S3_bRSt8ios_baseRNSt5_IosbIiE8_IostateERSs; };
0x1BCE289119F22498 { global: _ZNKSt9money_getIcSt19istreambuf_iteratorIcSt11char_traitsIcEEE3getES3_S3_bRSt8ios_baseRNSt5_IosbIiE8_IostateERe; };
0x0F69E32CFA44B751 { global: _ZNKSt9money_getIcSt19istreambuf_iteratorIcSt11char_traitsIcEEE6do_getES3_S3_bRSt8ios_baseRNSt5_IosbIiE8_IostateERSs; };
0x21156A746C123571 { global: _ZNKSt9money_getIcSt19istreambuf_iteratorIcSt11char_traitsIcEEE6do_getES3_S3_bRSt8ios_baseRNSt5_IosbIiE8_IostateERe; };
0x08B4F4E068C8ED41 { global: _ZNKSt9money_getIcSt19istreambuf_iteratorIcSt11char_traitsIcEEE8_GetmfldERS3_S5_bRSt8ios_basePc; };
0xC1622C8CEA9F7127 { global: _ZNKSt9money_getIwSt19istreambuf_iteratorIwSt11char_traitsIwEEE3getES3_S3_bRSt8ios_baseRNSt5_IosbIiE8_IostateERSbIwS2_SaIwEE; };
0x00731D531E979FD4 { global: _ZNKSt9money_getIwSt19istreambuf_iteratorIwSt11char_traitsIwEEE3getES3_S3_bRSt8ios_baseRNSt5_IosbIiE8_IostateERe; };
0x0E15D30F978CECB4 { global: _ZNKSt9money_getIwSt19istreambuf_iteratorIwSt11char_traitsIwEEE6do_getES3_S3_bRSt8ios_baseRNSt5_IosbIiE8_IostateERSbIwS2_SaIwEE; };
0xCF3B9B0A6FA70F37 { global: _ZNKSt9money_getIwSt19istreambuf_iteratorIwSt11char_traitsIwEEE6do_getES3_S3_bRSt8ios_baseRNSt5_IosbIiE8_IostateERe; };
0x45A94E25C397249A { global: _ZNKSt9money_getIwSt19istreambuf_iteratorIwSt11char_traitsIwEEE8_GetmfldERS3_S5_bRSt8ios_basePw; };
0x0D1D36F4A796B07C { global: _ZNKSt9money_putIcSt19ostreambuf_iteratorIcSt11char_traitsIcEEE3putES3_bRSt8ios_basecRKSs; };
0xEB972F9B63432E65 { global: _ZNKSt9money_putIcSt19ostreambuf_iteratorIcSt11char_traitsIcEEE3putES3_bRSt8ios_basece; };
0x00391E33C888B668 { global: _ZNKSt9money_putIcSt19ostreambuf_iteratorIcSt11char_traitsIcEEE6do_putES3_bRSt8ios_basecRKSs; };
0x89756B840E75CF43 { global: _ZNKSt9money_putIcSt19ostreambuf_iteratorIcSt11char_traitsIcEEE6do_putES3_bRSt8ios_basece; };
0x779EC50F338DD61D { global: _ZNKSt9money_putIcSt19ostreambuf_iteratorIcSt11char_traitsIcEEE8_PutmfldES3_bRSt8ios_basecbSsc; };
0x26BB8179082C01A5 { global: _ZNKSt9money_putIwSt19ostreambuf_iteratorIwSt11char_traitsIwEEE3putES3_bRSt8ios_basewRKSbIwS2_SaIwEE; };
0x007EC16D1AD1AC0F { global: _ZNKSt9money_putIwSt19ostreambuf_iteratorIwSt11char_traitsIwEEE3putES3_bRSt8ios_basewe; };
0x18388262D6A25323 { global: _ZNKSt9money_putIwSt19ostreambuf_iteratorIwSt11char_traitsIwEEE6do_putES3_bRSt8ios_basewRKSbIwS2_SaIwEE; };
0xC156390E9BD4E8F5 { global: _ZNKSt9money_putIwSt19ostreambuf_iteratorIwSt11char_traitsIwEEE6do_putES3_bRSt8ios_basewe; };
0x00AC94AC250154B1 { global: _ZNKSt9money_putIwSt19ostreambuf_iteratorIwSt11char_traitsIwEEE8_PutmfldES3_bRSt8ios_basewbSbIwS2_SaIwEEw; };
0x4E2F3A2E638ABEBD { global: _ZNSbIwSt11char_traitsIwESaIwEE5_CopyEmm; };
0x4E011BE5AFA73A79 { global: _ZNSbIwSt11char_traitsIwESaIwEE5eraseEmm; };
0x85251C492B591073 { global: _ZNSbIwSt11char_traitsIwESaIwEE6appendERKS2_mm; };
0x009C5F0233EB6BA3 { global: _ZNSbIwSt11char_traitsIwESaIwEE6appendEmw; };
0x20999E0396B25490 { global: _ZNSbIwSt11char_traitsIwESaIwEE6assignEPKwm; };
0xA6225A6D30D0455B { global: _ZNSbIwSt11char_traitsIwESaIwEE6assignERKS2_mm; };
0xF283B9E639DD3D18 { global: _ZNSbIwSt11char_traitsIwESaIwEE6assignEmw; };
0xC361B2BA85C29E4C { global: _ZNSbIwSt11char_traitsIwESaIwEE6insertEmmw; };
0xE990EFE99BAC8858 { global: _ZNSiD0Ev; };
0x00B4952DB6BB17B2 { global: _ZNSiD1Ev; };
0x8154D696FC814887 { global: _ZNSo6sentryC2ERSo; };
0x9E4FB4C935AFA111 { global: _ZNSo6sentryD2Ev; };
0x9534EB0E3E4E2304 { global: _ZNSoD0Ev; };
0x1E909E3F5D9CB8D6 { global: _ZNSoD1Ev; };
0xF4720BA84A21DB81 { global: _ZNSs5_CopyEmm; };
0xD08AF78E24F857A4 { global: _ZNSs5eraseEmm; };
0x00AA24788F1D5A6C { global: _ZNSs6appendERKSsmm; };
0x42A05650D11F200A { global: _ZNSs6appendEmc; };
0xC52C4F1E6A5C3736 { global: _ZNSs6assignEPKcm; };
0xA46C4D23824A7E66 { global: _ZNSs6assignERKSsmm; };
0x8A48E7A1E7A6B294 { global: _ZNSs6assignEmc; };
0x283810597D5E0DEA { global: _ZNSs6insertEmmc; };
0x3070345D1D981E84 { global: _ZNSt10bad_typeidD0Ev; };
0xBF3874AA82C812EA { global: _ZNSt10bad_typeidD1Ev; };
0xB6467B8D557AC09F { global: _ZNSt10bad_typeidD2Ev; };
0xC466DA40FB070852 { global: _ZNSt10filesystem10_Close_dirEPv; };
0x3DB095EE3B82655A { global: _ZNSt10filesystem10_Copy_fileEPKcS1_; };
0x00490D36640E4450 { global: _ZNSt10filesystem10_File_sizeEPKc; };
0xDD4D9E784A94C11D { global: _ZNSt10filesystem10_File_sizeEPKcPi; };
0x5C3F45997D666AF5 { global: _ZNSt10filesystem11_EquivalentEPKcS1_; };
0x603431138708C1AE { global: _ZNSt10filesystem11_Remove_dirEPKc; };
0xF15280AA2C3B942D { global: _ZNSt10filesystem12_Current_getERA260_c; };
0x625D74912B9F6B99 { global: _ZNSt10filesystem12_Current_setEPKc; };
0xC8BF1D31D0A2E18B { global: _ZNSt10filesystem13_Current_set2EPKc; };
0x1C20756AE65D726A { global: _ZNSt10filesystem16_Last_write_timeEPKc; };
0x60A851C921376717 { global: _ZNSt10filesystem16_Last_write_timeEPKcPlS2_; };
0x5AEB78D9601EED1C { global: _ZNSt10filesystem18_Xfilesystem_errorEPKcRKNS_4pathES4_St10error_code; };
0x000BAECCA3959BC1 { global: _ZNSt10filesystem18_Xfilesystem_errorEPKcRKNS_4pathESt10error_code; };
0x07409E22142DCBB6 { global: _ZNSt10filesystem18_Xfilesystem_errorEPKcSt10error_code; };
0x55293EB228F69B08 { global: _ZNSt10filesystem20_Set_last_write_timeEPKcl; };
0x101C1A86C30BA24C { global: _ZNSt10filesystem5_StatEPKcPNS_5permsE; };
0xF0A79E785704765B { global: _ZNSt10filesystem5_StatEPKcPNS_5permsEPi; };
0x5F22B0E87B353FD6 { global: _ZNSt10filesystem6_ChmodEPKcNS_5permsE; };
0xA35AA5649AABBE62 { global: _ZNSt10filesystem6_LstatEPKcPNS_5permsE; };
0xB62CC216DD39D61F { global: _ZNSt10filesystem6_LstatEPKcPNS_5permsEPi; };
0xB2BC25D61845A142 { global: _ZNSt10filesystem7_RenameEPKcS1_; };
0x003B898FA28969A3 { global: _ZNSt10filesystem7_ResizeEPKcm; };
0x22893559DBC044E8 { global: _ZNSt10filesystem7_UnlinkEPKc; };
0x49D2A4E37F698238 { global: _ZNSt10filesystem8_StatvfsEPKcRNS_10space_infoE; };
0xC7BA501314DEA816 { global: _ZNSt10filesystem9_Make_dirEPKcS1_; };
0xF22B87A65FA483C0 { global: _ZNSt10filesystem9_Open_dirERA260_cPKcRiRNS_9file_typeE; };
0xC39086CA40415393 { global: _ZNSt10filesystem9_Read_dirERA260_cPvRNS_9file_typeE; };
0x994F3C1980A2AE12 { global: _ZNSt10moneypunctIcLb0EE7_GetcatEPPKNSt6locale5facetEPKS1_; };
0xE5A7C126611F5102 { global: _ZNSt10moneypunctIcLb0EEC1EPKcm; };
0xC2B4774F98BB8296 { global: _ZNSt10moneypunctIcLb0EEC1ERKSt8_Locinfomb; };
0xB5804B9B406841D4 { global: _ZNSt10moneypunctIcLb0EEC1Em; };
0x68D7E976172C3162 { global: _ZNSt10moneypunctIcLb0EEC2EPKcm; };
0xB9016FF1A345F097 { global: _ZNSt10moneypunctIcLb0EEC2ERKSt8_Locinfomb; };
0xE4315E5E33FE3E58 { global: _ZNSt10moneypunctIcLb0EEC2Em; };
0xB12E5F17E7E1B767 { global: _ZNSt10moneypunctIcLb0EED0Ev; };
0xDDC5BA32B9022ADD { global: _ZNSt10moneypunctIcLb0EED1Ev; };
0x99B1A648E2D780DD { global: _ZNSt10moneypunctIcLb0EED2Ev; };
0x06EC6C111B28A6CB { global: _ZNSt10moneypunctIcLb1EE7_GetcatEPPKNSt6locale5facetEPKS1_; };
0xF52F7AD2303CB41D { global: _ZNSt10moneypunctIcLb1EEC1EPKcm; };
0x4D19F770C5389A36 { global: _ZNSt10moneypunctIcLb1EEC1ERKSt8_Locinfomb; };
0x9DB4C0A0CC223B7F { global: _ZNSt10moneypunctIcLb1EEC1Em; };
0x00471267247A3249 { global: _ZNSt10moneypunctIcLb1EEC2EPKcm; };
0x00EDEDC3AE765E69 { global: _ZNSt10moneypunctIcLb1EEC2ERKSt8_Locinfomb; };
0x0090F10B8B0F4B83 { global: _ZNSt10moneypunctIcLb1EEC2Em; };
0xB5C76F4D494F9CBD { global: _ZNSt10moneypunctIcLb1EED0Ev; };
0xC13F872FBA2A8D87 { global: _ZNSt10moneypunctIcLb1EED1Ev; };
0x17B0940A989AB1E7 { global: _ZNSt10moneypunctIcLb1EED2Ev; };
0xD0E8C125977D55E3 { global: _ZNSt10moneypunctIwLb0EE7_GetcatEPPKNSt6locale5facetEPKS1_; };
0x8E76B9B2A2122B8B { global: _ZNSt10moneypunctIwLb0EEC1EPKcm; };
0x747B3B9DDAD00622 { global: _ZNSt10moneypunctIwLb0EEC1ERKSt8_Locinfomb; };
0x31C501602AA32CC8 { global: _ZNSt10moneypunctIwLb0EEC1Em; };
0xE5B42A751DE14D9C { global: _ZNSt10moneypunctIwLb0EEC2EPKcm; };
0xD64BD090E49A695A { global: _ZNSt10moneypunctIwLb0EEC2ERKSt8_Locinfomb; };
0x6C11AF9ACA60DD7B { global: _ZNSt10moneypunctIwLb0EEC2Em; };
0xF7931A42545B7C2F { global: _ZNSt10moneypunctIwLb0EED0Ev; };
0x922E5240FB01E26E { global: _ZNSt10moneypunctIwLb0EED1Ev; };
0xE85D497E220D1B5F { global: _ZNSt10moneypunctIwLb0EED2Ev; };
0x1E670C2F3DDC3E43 { global: _ZNSt10moneypunctIwLb1EE7_GetcatEPPKNSt6locale5facetEPKS1_; };
0xA7205A6D47AC5CDE { global: _ZNSt10moneypunctIwLb1EEC1EPKcm; };
0xB913AC01CCD6E8E5 { global: _ZNSt10moneypunctIwLb1EEC1ERKSt8_Locinfomb; };
0x005FAF549405C539 { global: _ZNSt10moneypunctIwLb1EEC1Em; };
0x192D40BF10705606 { global: _ZNSt10moneypunctIwLb1EEC2EPKcm; };
0x1F46B6417BE01CE9 { global: _ZNSt10moneypunctIwLb1EEC2ERKSt8_Locinfomb; };
0xB136940C39C63A91 { global: _ZNSt10moneypunctIwLb1EEC2Em; };
0x7D6B9049518E8AF0 { global: _ZNSt10moneypunctIwLb1EED0Ev; };
0x38CD059C0ED395D9 { global: _ZNSt10moneypunctIwLb1EED1Ev; };
0xB953B1CBB7504C57 { global: _ZNSt10moneypunctIwLb1EED2Ev; };
0x7E7D62EF65F5F06B { global: _ZNSt11logic_errorD0Ev; };
0x8BBDBA4F40476CE5 { global: _ZNSt11logic_errorD1Ev; };
0xC200C898AA062823 { global: _ZNSt11logic_errorD2Ev; };
0x79F5E7C5814DE681 { global: _ZNSt11range_errorD0Ev; };
0x36735A59AD7A3AF1 { global: _ZNSt11range_errorD1Ev; };
0x5E099447A5927978 { global: _ZNSt11range_errorD2Ev; };
0x0125099A570748BA { global: _ZNSt11regex_errorD0Ev; };
0x803B2F9CF2242C81 { global: _ZNSt11regex_errorD1Ev; };
0x5F6C1F70562EB139 { global: _ZNSt11regex_errorD2Ev; };
0x272028BA512A0357 { global: _ZNSt12bad_weak_ptrD0Ev; };
0x8C03B520928C844E { global: _ZNSt12bad_weak_ptrD1Ev; };
0xD91DA3D507B35063 { global: _ZNSt12bad_weak_ptrD2Ev; };
0xABCF4DF4BF2AF055 { global: _ZNSt12domain_errorD0Ev; };
0x00ECFD569B92A001 { global: _ZNSt12domain_errorD1Ev; };
0x02C4A19C6DC3BA53 { global: _ZNSt12domain_errorD2Ev; };
0xACD60B12C2FB3349 { global: _ZNSt12future_errorD0Ev; };
0x7EEC971DE1116A31 { global: _ZNSt12future_errorD1Ev; };
0x5C58740BAE9A126B { global: _ZNSt12future_errorD2Ev; };
0x412EC20128EDE055 { global: _ZNSt12length_errorD0Ev; };
0x9F7CBC467F615C9A { global: _ZNSt12length_errorD1Ev; };
0x36325F54724BD868 { global: _ZNSt12length_errorD2Ev; };
0x4EABF38961DEB67C { global: _ZNSt12out_of_rangeD0Ev; };
0x29C6FE30D4B365C7 { global: _ZNSt12out_of_rangeD1Ev; };
0x7025CCCA9A33E15B { global: _ZNSt12out_of_rangeD2Ev; };
0xA25CB7C12C042760 { global: _ZNSt12system_errorC2ESt10error_codePKc; };
0x00732CBD9ED8D64F { global: _ZNSt12system_errorD0Ev; };
0xDEA5973BD1935185 { global: _ZNSt12system_errorD1Ev; };
0x8ADE830EBA8A1AFA { global: _ZNSt12system_errorD2Ev; };
0x957F4CE6ED1EE3C9 { global: _ZNSt13bad_exceptionD0Ev; };
0xB7A7A09650EA4363 { global: _ZNSt13bad_exceptionD1Ev; };
0x896342DAD903831C { global: _ZNSt13bad_exceptionD2Ev; };
0x54D6AA79CB6C64DB { global: _ZNSt13basic_filebufIcSt11char_traitsIcEE4syncEv; };
0xF5B8A20C37A35F74 { global: _ZNSt13basic_filebufIcSt11char_traitsIcEE5_LockEv; };
0xA8CD2051EA46593D { global: _ZNSt13basic_filebufIcSt11char_traitsIcEE5imbueERKSt6locale; };
0x8DFAF8D461A9DA30 { global: _ZNSt13basic_filebufIcSt11char_traitsIcEE5uflowEv; };
0x49814DB33F4ADABB { global: _ZNSt13basic_filebufIcSt11char_traitsIcEE6setbufEPci; };
0xCA87C7B299C3F6EB { global: _ZNSt13basic_filebufIcSt11char_traitsIcEE7_UnlockEv; };
0xEE88A8D86B3518D9 { global: _ZNSt13basic_filebufIcSt11char_traitsIcEE7seekoffElNSt5_IosbIiE8_SeekdirENS4_9_OpenmodeE; };
0xAEC4B97013228403 { global: _ZNSt13basic_filebufIcSt11char_traitsIcEE7seekposESt4fposI9_MbstatetENSt5_IosbIiE9_OpenmodeE; };
0xA18311824407A093 { global: _ZNSt13basic_filebufIcSt11char_traitsIcEE8overflowEi; };
0x253C2DF4E4E09359 { global: _ZNSt13basic_filebufIcSt11char_traitsIcEE9_EndwriteEv; };
0x8DEAF1723D979DB8 { global: _ZNSt13basic_filebufIcSt11char_traitsIcEE9pbackfailEi; };
0x365EAC8B509F20DC { global: _ZNSt13basic_filebufIcSt11char_traitsIcEE9underflowEv; };
0x31809146673B7030 { global: _ZNSt13basic_filebufIcSt11char_traitsIcEED0Ev; };
0x61CDA0651B4378D4 { global: _ZNSt13basic_filebufIcSt11char_traitsIcEED1Ev; };
0x80EC46390992554D { global: _ZNSt13basic_filebufIcSt11char_traitsIcEED2Ev; };
0xF96BE6662DF6D7A3 { global: _ZNSt13basic_filebufIwSt11char_traitsIwEE4syncEv; };
0x1984E66BCCEAD0D5 { global: _ZNSt13basic_filebufIwSt11char_traitsIwEE5_LockEv; };
0x926CCD6E196475D0 { global: _ZNSt13basic_filebufIwSt11char_traitsIwEE5imbueERKSt6locale; };
0x56B5C634C4E035D1 { global: _ZNSt13basic_filebufIwSt11char_traitsIwEE5uflowEv; };
0xC0072708AD8709E2 { global: _ZNSt13basic_filebufIwSt11char_traitsIwEE6setbufEPwi; };
0xAF29760D8331959D { global: _ZNSt13basic_filebufIwSt11char_traitsIwEE7_UnlockEv; };
0x83B82308311E7490 { global: _ZNSt13basic_filebufIwSt11char_traitsIwEE7seekoffElNSt5_IosbIiE8_SeekdirENS4_9_OpenmodeE; };
0xD7455CAC7A87025C { global: _ZNSt13basic_filebufIwSt11char_traitsIwEE7seekposESt4fposI9_MbstatetENSt5_IosbIiE9_OpenmodeE; };
0x3E31F975919F4074 { global: _ZNSt13basic_filebufIwSt11char_traitsIwEE8overflowEi; };
0x715E8AA49885D029 { global: _ZNSt13basic_filebufIwSt11char_traitsIwEE9_EndwriteEv; };
0x35E885BCA6E5A593 { global: _ZNSt13basic_filebufIwSt11char_traitsIwEE9pbackfailEi; };
0x857B2F7E4CB7EB6B { global: _ZNSt13basic_filebufIwSt11char_traitsIwEE9underflowEv; };
0x002499A43A1768A2 { global: _ZNSt13basic_filebufIwSt11char_traitsIwEED0Ev; };
0x5DCB823B5617691B { global: _ZNSt13basic_filebufIwSt11char_traitsIwEED1Ev; };
0x682F4E5811A3BF10 { global: _ZNSt13basic_filebufIwSt11char_traitsIwEED2Ev; };
0x4AD25A2984D17541 { global: _ZNSt13basic_istreamIwSt11char_traitsIwEED0Ev; };
0x44FEE28E4186C79D { global: _ZNSt13basic_istreamIwSt11char_traitsIwEED1Ev; };
0xE066C8C16E6EE6EB { global: _ZNSt13basic_ostreamIwSt11char_traitsIwEE6sentryC2ERS2_; };
0x301D550B281EAD15 { global: _ZNSt13basic_ostreamIwSt11char_traitsIwEE6sentryD2Ev; };
0xED545F933DB6BCF9 { global: _ZNSt13basic_ostreamIwSt11char_traitsIwEED0Ev; };
0x118649B275F9F031 { global: _ZNSt13basic_ostreamIwSt11char_traitsIwEED1Ev; };
0xF78764D55ED77D8C { global: _ZNSt13runtime_errorD0Ev; };
0x00B8197045F45B08 { global: _ZNSt13runtime_errorD1Ev; };
0xA1EF6D4B4573B589 { global: _ZNSt13runtime_errorD2Ev; };
0x83C270ED5EA69FC9 { global: _ZNSt14error_categoryD2Ev; };
0xCB575842C73AEF2B { global: _ZNSt14overflow_errorD0Ev; };
0x5E294EB1374266E3 { global: _ZNSt14overflow_errorD1Ev; };
0x3B2A6F35FDD4AB77 { global: _ZNSt14overflow_errorD2Ev; };
0x569C32990892E1C9 { global: _ZNSt15basic_streambufIcSt11char_traitsIcEE6xsgetnEPci; };
0xB176B1975406A2B8 { global: _ZNSt15basic_streambufIcSt11char_traitsIcEE6xsputnEPKci; };
0x200125D536BBC955 { global: _ZNSt15basic_streambufIcSt11char_traitsIcEE9showmanycEv; };
0x95955E864EF21689 { global: _ZNSt15basic_streambufIwSt11char_traitsIwEE6xsgetnEPwi; };
0xD38D5CDFB41FA147 { global: _ZNSt15basic_streambufIwSt11char_traitsIwEE6xsputnEPKwi; };
0xA25B28899B1ECE49 { global: _ZNSt15basic_streambufIwSt11char_traitsIwEE9showmanycEv; };
0x88720B026C184466 { global: _ZNSt15underflow_errorD0Ev; };
0x0000000000000000 { global: _ZNSt15underflow_errorD1Ev; };
0xC62A9DF9092E6177 { global: _ZNSt15underflow_errorD2Ev; };
0xD4686221E229926B { global: _ZNSt16invalid_argumentD0Ev; };
0xA100D2F675F4E508 { global: _ZNSt16invalid_argumentD1Ev; };
0x75DAFB21EE2EE4DC { global: _ZNSt16invalid_argumentD2Ev; };
0xCDAE74917CA2DD20 { global: _ZNSt16nested_exceptionD0Ev; };
0xFAA292E77AB359D0 { global: _ZNSt16nested_exceptionD1Ev; };
0xF11D34860CD74036 { global: _ZNSt16nested_exceptionD2Ev; };
0xABDACCB47B97BD9F { global: _ZNSt17bad_function_callD0Ev; };
0x6040EB6F5A52C766 { global: _ZNSt17bad_function_callD1Ev; };
0x36A3209B1480D6B7 { global: _ZNSt17bad_function_callD2Ev; };
0x00F033495B9B5703 { global: _ZNSt18bad_variant_accessD0Ev; };
0x5376F90362C48937 { global: _ZNSt18bad_variant_accessD1Ev; };
0x0000000000000000 { global: _ZNSt20bad_array_new_lengthD0Ev; };
0x5CEDCDE1206F0B2D { global: _ZNSt20bad_array_new_lengthD1Ev; };
0x00D79941EDF970F7 { global: _ZNSt20bad_array_new_lengthD2Ev; };
0x005832B330CBAE2C { global: _ZNSt22_Future_error_categoryD0Ev; };
0xC6C5D00F9C9B444C { global: _ZNSt22_Future_error_categoryD1Ev; };
0x0DCE1931698F325F { global: _ZNSt22_System_error_categoryD0Ev; };
0x8554207C6849CF75 { global: _ZNSt22_System_error_categoryD1Ev; };
0x601AE9F419400DA0 { global: _ZNSt23_Generic_error_categoryD0Ev; };
0x3006A581085E8CF7 { global: _ZNSt23_Generic_error_categoryD1Ev; };
0x8D5C31321151C3C4 { global: _ZNSt24_Iostream_error_categoryD0Ev; };
0x00DBB642C758DB91 { global: _ZNSt24_Iostream_error_categoryD1Ev; };
0xF46DF6BB94516311 { global: _ZNSt3pmr19new_delete_resourceEv; };
0x776BB7F33B383DEF { global: _ZNSt3pmr20get_default_resourceEv; };
0x79630623B07B2F27 { global: _ZNSt3pmr20null_memory_resourceEv; };
0x4CA62CBF48DDBD1C { global: _ZNSt3pmr20set_default_resourceEPNS_15memory_resourceE; };
0x0000000000000000 { global: _ZNSt4_Pad7_LaunchEPKcPP12pthread_attrPP7pthread; };
0x3C16D98EC2FA9DF7 { global: _ZNSt4_Pad7_LaunchEPKcPP7pthread; };
0x007CB05930E421DD { global: _ZNSt4_Pad7_LaunchEPP12pthread_attrPP7pthread; };
0xC59AA266F99CA7D9 { global: _ZNSt4_Pad7_LaunchEPP7pthread; };
0x006B3EF0C6E60ED8 { global: _ZNSt4_Pad8_ReleaseEv; };
0xBA19DBE9D9D73A77 { global: _ZNSt4_PadC2EPKc; };
0x746628F6613C2B60 { global: _ZNSt4_PadC2Ev; };
0x5F224F84FAA9CCCC { global: _ZNSt4_PadD1Ev; };
0x8232D16607DBDE2D { global: _ZNSt4_PadD2Ev; };
0x00A7CE3871578EF3 { global: _ZNSt5ctypeIcED0Ev; };
0xB4FB0603A13334A0 { global: _ZNSt5ctypeIcED1Ev; };
0xCCE3C0E6A9DB5B65 { global: _ZNSt5ctypeIwED0Ev; };
0x3F4DFCDC05B763D0 { global: _ZNSt5ctypeIwED1Ev; };
0x539E0D06D763E946 { global: _ZNSt6_Mutex5_LockEv; };
0xECE09390BDA85B28 { global: _ZNSt6_Mutex7_UnlockEv; };
0xD8A3671B667DCC90 { global: _ZNSt6_MutexC1Ev; };
0x96883ACF2D82F624 { global: _ZNSt6_MutexC2Ev; };
0x7631DB3C4F93148A { global: _ZNSt6_MutexD1Ev; };
0x8FB7BB110043E990 { global: _ZNSt6_MutexD2Ev; };
0x0000000000000000 { global: _ZNSt6_WinitC1Ev; };
0x00E7B98CAF0D25E3 { global: _ZNSt6_WinitC2Ev; };
0x530DCE4D914F36DE { global: _ZNSt6_WinitD1Ev; };
0xDB239AAE87560021 { global: _ZNSt6_WinitD2Ev; };
0x844436622E0F2570 { global: _ZNSt6locale16_GetgloballocaleEv; };
0xD536902F23C32446 { global: _ZNSt6locale16_SetgloballocaleEPv; };
0xF6B30C2F4F3A4841 { global: _ZNSt6locale5_InitEv; };
0x002B99ADBA9419E2 { global: _ZNSt6locale5emptyEv; };
0x020C4497E1DE5914 { global: _ZNSt6locale5facet7_DecrefEv; };
0x0012049E81E00A97 { global: _ZNSt6locale5facet7_IncrefEv; };
0x416DA32F5279AF06 { global: _ZNSt6locale5facet9_RegisterEv; };
0xA6DC2103405055E1 { global: _ZNSt6locale6globalERKS_; };
0xBAE81ADD18A908A4 { global: _ZNSt6locale7_Locimp7_AddfacEPNS_5facetEm; };
0xE6BF34D595A22492 { global: _ZNSt6locale7_Locimp8_MakelocERKSt8_LocinfoiPS0_PKS_; };
0x05C6C7152ADC8376 { global: _ZNSt6locale7_Locimp9_MakewlocERKSt8_LocinfoiPS0_PKS_; };
0x7E414694F76ABAA2 { global: _ZNSt6locale7_Locimp9_MakexlocERKSt8_LocinfoiPS0_PKS_; };
0x5958B0C6D10AC479 { global: _ZNSt6locale7_LocimpC1ERKS0_; };
0xE9BDCA2233C3DF79 { global: _ZNSt6locale7_LocimpC1Eb; };
0x76C24A7A1B9A8C7E { global: _ZNSt6locale7_LocimpC2ERKS0_; };
0xCEB991F3C0A57CEB { global: _ZNSt6locale7_LocimpC2Eb; };
0x6E578AAFC94E2EBF { global: _ZNSt6locale7_LocimpD0Ev; };
0x006838AA6D594799 { global: _ZNSt6locale7_LocimpD1Ev; };
0x4A8EA04A624C603B { global: _ZNSt6locale7_LocimpD2Ev; };
0x52AE4AF2D97C23D5 { global: _ZNSt6locale7classicEv; };
0xA4C5A72131F2B0F7 { global: _ZNSt6localeD1Ev; };
0x087AE1C1DF10481B { global: _ZNSt6thread20hardware_concurrencyEv; };
0x9BBA80822ADC6996 { global: _ZNSt7_MpunctIcE5_InitERKSt8_Locinfob; };
0xD2297DA9DA3A7E1B { global: _ZNSt7_MpunctIcEC2EPKcmbb; };
0xCD648D620D7851A8 { global: _ZNSt7_MpunctIcEC2Emb; };
0x2F38F8C2CEC39614 { global: _ZNSt7_MpunctIcED0Ev; };
0xD00782FAA0842C40 { global: _ZNSt7_MpunctIcED1Ev; };
0x882A03D043886D33 { global: _ZNSt7_MpunctIwE5_InitERKSt8_Locinfob; };
0x4C3863C779F26A85 { global: _ZNSt7_MpunctIwEC2EPKcmbb; };
0x3EBD722F351EDB7D { global: _ZNSt7_MpunctIwEC2Emb; };
0xF147AEC462A342BF { global: _ZNSt7_MpunctIwED0Ev; };
0xD13003C8F5ABA1B2 { global: _ZNSt7_MpunctIwED1Ev; };
0xBF0331D8D85674BC { global: _ZNSt7codecvtIDic9_MbstatetED0Ev; };
0x4EE846088C602EF0 { global: _ZNSt7codecvtIDic9_MbstatetED1Ev; };
0xCD81EBC9DF2F774C { global: _ZNSt7codecvtIDsc9_MbstatetED0Ev; };
0x39EA3DB546F35BBB { global: _ZNSt7codecvtIDsc9_MbstatetED1Ev; };
0x89908735A863FBEE { global: _ZNSt7codecvtIcc9_MbstatetE5_InitERKSt8_Locinfo; };
0xCF286288B2A774EF { global: _ZNSt7codecvtIcc9_MbstatetE7_GetcatEPPKNSt6locale5facetEPKS2_; };
0xDD808BC59AA021DA { global: _ZNSt7codecvtIcc9_MbstatetEC1ERKSt8_Locinfom; };
0x5E1C126F0B01771D { global: _ZNSt7codecvtIcc9_MbstatetEC1Em; };
0x00E2A1F04933EDB7 { global: _ZNSt7codecvtIcc9_MbstatetEC2ERKSt8_Locinfom; };
0x7B91F0727B6F77C7 { global: _ZNSt7codecvtIcc9_MbstatetEC2Em; };
0xD9361D6B200EDFD1 { global: _ZNSt7codecvtIcc9_MbstatetED0Ev; };
0x763364AC92936FA4 { global: _ZNSt7codecvtIcc9_MbstatetED1Ev; };
0xB68EC6820C040995 { global: _ZNSt7codecvtIcc9_MbstatetED2Ev; };
0xF41237A189024C25 { global: _ZNSt7codecvtIwc9_MbstatetED0Ev; };
0xD1F905037CDAD8DF { global: _ZNSt7codecvtIwc9_MbstatetED1Ev; };
0x0000000000000000 { global: _ZNSt7collateIcE5_InitERKSt8_Locinfo; };
0x052549A884C60B22 { global: _ZNSt7collateIcE7_GetcatEPPKNSt6locale5facetEPKS1_; };
0xB2994130C705DF29 { global: _ZNSt7collateIcEC1EPKcm; };
0xADA2E02148B7C669 { global: _ZNSt7collateIcEC1ERKSt8_Locinfom; };
0x3A8D6BF23286650E { global: _ZNSt7collateIcEC1Em; };
0x542942ACC0F2C9D1 { global: _ZNSt7collateIcEC2EPKcm; };
0x2FBD49027A1079EB { global: _ZNSt7collateIcEC2ERKSt8_Locinfom; };
0xB64A8D8A98A7D442 { global: _ZNSt7collateIcEC2Em; };
0x2EDE38D3B50CB36A { global: _ZNSt7collateIcED0Ev; };
0xF295C27A67B4142E { global: _ZNSt7collateIcED1Ev; };
0x74FE73C10D9873C8 { global: _ZNSt7collateIcED2Ev; };
0x002F12AC2060EC15 { global: _ZNSt7collateIwE5_InitERKSt8_Locinfo; };
0xDB0CF8AED85D8B2F { global: _ZNSt7collateIwE7_GetcatEPPKNSt6locale5facetEPKS1_; };
0x7E31C053C392696F { global: _ZNSt7collateIwEC1EPKcm; };
0x00C20808223592B4 { global: _ZNSt7collateIwEC1ERKSt8_Locinfom; };
0x0074C3ADCAEF0602 { global: _ZNSt7collateIwEC1Em; };
0x3D2030EE0D430F6E { global: _ZNSt7collateIwEC2EPKcm; };
0x00D8FA10B8ADAA5E { global: _ZNSt7collateIwEC2ERKSt8_Locinfom; };
0x1D06E0794750CB2C { global: _ZNSt7collateIwEC2Em; };
0x8A0E150C845CDB54 { global: _ZNSt7collateIwED0Ev; };
0x64EDDAE877C02D34 { global: _ZNSt7collateIwED1Ev; };
0xF38C083E7C011A25 { global: _ZNSt7collateIwED2Ev; };
0x7172FE2CDD254B07 { global: _ZNSt7num_getIcSt19istreambuf_iteratorIcSt11char_traitsIcEEE5_InitERKSt8_Locinfo; };
0xA7558C8712F859DB { global: _ZNSt7num_getIcSt19istreambuf_iteratorIcSt11char_traitsIcEEE7_GetcatEPPKNSt6locale5facetEPKS5_; };
0x893383337B974B6B { global: _ZNSt7num_getIcSt19istreambuf_iteratorIcSt11char_traitsIcEEEC1ERKSt8_Locinfom; };
0x00B978E8583DB7DF { global: _ZNSt7num_getIcSt19istreambuf_iteratorIcSt11char_traitsIcEEEC1Em; };
0xC80A1B188D9686B8 { global: _ZNSt7num_getIcSt19istreambuf_iteratorIcSt11char_traitsIcEEEC2ERKSt8_Locinfom; };
0x44D998558959BEFF { global: _ZNSt7num_getIcSt19istreambuf_iteratorIcSt11char_traitsIcEEEC2Em; };
0x00D46D621372B218 { global: _ZNSt7num_getIcSt19istreambuf_iteratorIcSt11char_traitsIcEEED0Ev; };
0x9006B2D217E00C9B { global: _ZNSt7num_getIcSt19istreambuf_iteratorIcSt11char_traitsIcEEED1Ev; };
0xE92F23CD6586716A { global: _ZNSt7num_getIcSt19istreambuf_iteratorIcSt11char_traitsIcEEED2Ev; };
0xE0C1E044638A3976 { global: _ZNSt7num_getIwSt19istreambuf_iteratorIwSt11char_traitsIwEEE5_InitERKSt8_Locinfo; };
0xCD35FB2CBFB0D764 { global: _ZNSt7num_getIwSt19istreambuf_iteratorIwSt11char_traitsIwEEE7_GetcatEPPKNSt6locale5facetEPKS5_; };
0xD143D4DE4BF159BD { global: _ZNSt7num_getIwSt19istreambuf_iteratorIwSt11char_traitsIwEEEC1ERKSt8_Locinfom; };
0x00D7CACB6C454D42 { global: _ZNSt7num_getIwSt19istreambuf_iteratorIwSt11char_traitsIwEEEC1Em; };
0x7B7B21802219C517 { global: _ZNSt7num_getIwSt19istreambuf_iteratorIwSt11char_traitsIwEEEC2ERKSt8_Locinfom; };
0x00F9129ADC0B3480 { global: _ZNSt7num_getIwSt19istreambuf_iteratorIwSt11char_traitsIwEEEC2Em; };
0x6870DD2DAEE30355 { global: _ZNSt7num_getIwSt19istreambuf_iteratorIwSt11char_traitsIwEEED0Ev; };
0x0065B69AA9DEF49A { global: _ZNSt7num_getIwSt19istreambuf_iteratorIwSt11char_traitsIwEEED1Ev; };
0x6F05497F791AB7D7 { global: _ZNSt7num_getIwSt19istreambuf_iteratorIwSt11char_traitsIwEEED2Ev; };
0x05B2789DA599791C { global: _ZNSt7num_putIcSt19ostreambuf_iteratorIcSt11char_traitsIcEEE5_InitERKSt8_Locinfo; };
0x84D021D65D3D5290 { global: _ZNSt7num_putIcSt19ostreambuf_iteratorIcSt11char_traitsIcEEE7_GetcatEPPKNSt6locale5facetEPKS5_; };
0x001E0D629AB51E1D { global: _ZNSt7num_putIcSt19ostreambuf_iteratorIcSt11char_traitsIcEEEC1ERKSt8_Locinfom; };
0x2C011553C7014A1E { global: _ZNSt7num_putIcSt19ostreambuf_iteratorIcSt11char_traitsIcEEEC1Em; };
0x3278AEB66D892F63 { global: _ZNSt7num_putIcSt19ostreambuf_iteratorIcSt11char_traitsIcEEEC2ERKSt8_Locinfom; };
0xD6060922B7C7C644 { global: _ZNSt7num_putIcSt19ostreambuf_iteratorIcSt11char_traitsIcEEEC2Em; };
0x0068E2B9B9C5CEE6 { global: _ZNSt7num_putIcSt19ostreambuf_iteratorIcSt11char_traitsIcEEED0Ev; };
0x5A80ADF68D92607C { global: _ZNSt7num_putIcSt19ostreambuf_iteratorIcSt11char_traitsIcEEED1Ev; };
0x0000000000000000 { global: _ZNSt7num_putIcSt19ostreambuf_iteratorIcSt11char_traitsIcEEED2Ev; };
0x57614809BBCF6BEB { global: _ZNSt7num_putIwSt19ostreambuf_iteratorIwSt11char_traitsIwEEE5_InitERKSt8_Locinfo; };
0xEA20E2E9ED9EE31F { global: _ZNSt7num_putIwSt19ostreambuf_iteratorIwSt11char_traitsIwEEE7_GetcatEPPKNSt6locale5facetEPKS5_; };
0x002B2F82A9B29C5F { global: _ZNSt7num_putIwSt19ostreambuf_iteratorIwSt11char_traitsIwEEEC1ERKSt8_Locinfom; };
0xC5D1EA42882075FA { global: _ZNSt7num_putIwSt19ostreambuf_iteratorIwSt11char_traitsIwEEEC1Em; };
0x00D0F74AE6319C80 { global: _ZNSt7num_putIwSt19ostreambuf_iteratorIwSt11char_traitsIwEEEC2ERKSt8_Locinfom; };
0x7F56462D49D01A0A { global: _ZNSt7num_putIwSt19ostreambuf_iteratorIwSt11char_traitsIwEEEC2Em; };
0x8F25D35679A5243E { global: _ZNSt7num_putIwSt19ostreambuf_iteratorIwSt11char_traitsIwEEED0Ev; };
0x5A2532DDD12D08E4 { global: _ZNSt7num_putIwSt19ostreambuf_iteratorIwSt11char_traitsIwEEED1Ev; };
0xEA1577CB6D5DE7D9 { global: _ZNSt7num_putIwSt19ostreambuf_iteratorIwSt11char_traitsIwEEED2Ev; };
0x5A402C772E42500A { global: _ZNSt8_Locinfo8_AddcatsEiPKc; };
0x86A8BCC8C382986D { global: _ZNSt8_LocinfoC1EPKc; };
0xD9A4A4DABB823F41 { global: _ZNSt8_LocinfoC1ERKSs; };
0x2F565EF78CA87F62 { global: _ZNSt8_LocinfoC1EiPKc; };
0xA4DD36152E523E08 { global: _ZNSt8_LocinfoC2EPKc; };
0x45E2BD53A1145AE5 { global: _ZNSt8_LocinfoC2ERKSs; };
0x8B5F3430D0BDA787 { global: _ZNSt8_LocinfoC2EiPKc; };
0xA7A2EB1E321031D9 { global: _ZNSt8_LocinfoD1Ev; };
0x61754253A3DD8199 { global: _ZNSt8_LocinfoD2Ev; };
0xD8C2B92EBF698107 { global: _ZNSt8bad_castD0Ev; };
0xE3B46F2D2A361CDF { global: _ZNSt8bad_castD1Ev; };
0xAC5D3BC1E2D726EF { global: _ZNSt8bad_castD2Ev; };
0xB2A5B2B678587448 { global: _ZNSt8ios_base4InitC1Ev; };
0x6D341C37045CF211 { global: _ZNSt8ios_base4InitC2Ev; };
0x9315C2BDC6ADD5C3 { global: _ZNSt8ios_base4InitD1Ev; };
0x6F12C7E561E03016 { global: _ZNSt8ios_base4InitD2Ev; };
0x41724272B5E8AA95 { global: _ZNSt8ios_base5clearENSt5_IosbIiE8_IostateEb; };
0x2D3A2FF60304A825 { global: _ZNSt8ios_base7_AddstdEPS_; };
0xC7BBEDC9AAF5B046 { global: _ZNSt8ios_base7failureD0Ev; };
0x3767F8F394E6266B { global: _ZNSt8ios_base7failureD1Ev; };
0x7E31B9A65C5B963F { global: _ZNSt8ios_base7failureD2Ev; };
0x2398DC6C04F2216A { global: _ZNSt8ios_baseD0Ev; };
0x5FD0FC596486DC0B { global: _ZNSt8ios_baseD1Ev; };
0x3FC176A1ABD95ED6 { global: _ZNSt8ios_baseD2Ev; };
0x78B076FB5FA656F8 { global: _ZNSt8messagesIcE5_InitERKSt8_Locinfo; };
0xF7A12FF8213596E1 { global: _ZNSt8messagesIcE7_GetcatEPPKNSt6locale5facetEPKS1_; };
0x5B4C3C4C6CC0BB44 { global: _ZNSt8messagesIcEC1EPKcm; };
0x483E34DE831CD694 { global: _ZNSt8messagesIcEC1ERKSt8_Locinfom; };
0xEA008142CD66222E { global: _ZNSt8messagesIcEC1Em; };
0xA85DE61DE3001D59 { global: _ZNSt8messagesIcEC2EPKcm; };
0xF7AF44BA2A28D764 { global: _ZNSt8messagesIcEC2ERKSt8_Locinfom; };
0xE83054A3476DCB59 { global: _ZNSt8messagesIcEC2Em; };
0x8F2F6EACE0C7D16A { global: _ZNSt8messagesIcED0Ev; };
0xDF89A2F25B5E353B { global: _ZNSt8messagesIcED1Ev; };
0xC8375B42BD682CE7 { global: _ZNSt8messagesIcED2Ev; };
0x0067345F0EDA3096 { global: _ZNSt8messagesIwE5_InitERKSt8_Locinfo; };
0x5E0848E2F9B0F265 { global: _ZNSt8messagesIwE7_GetcatEPPKNSt6locale5facetEPKS1_; };
0xE12AED9E4F8DA42E { global: _ZNSt8messagesIwEC1EPKcm; };
0x46B4CC1B23E1614E { global: _ZNSt8messagesIwEC1ERKSt8_Locinfom; };
0x9F8FB78739E1914E { global: _ZNSt8messagesIwEC1Em; };
0x0E50ECC97F97B280 { global: _ZNSt8messagesIwEC2EPKcm; };
0x0C34236F0342DF51 { global: _ZNSt8messagesIwEC2ERKSt8_Locinfom; };
0xC7C3C50632611FB1 { global: _ZNSt8messagesIwEC2Em; };
0x80CC24A59348F54B { global: _ZNSt8messagesIwED0Ev; };
0xEAC01A95E07B6609 { global: _ZNSt8messagesIwED1Ev; };
0x0021EEC3C68D3CEC { global: _ZNSt8messagesIwED2Ev; };
0x00D4BBDB35E65926 { global: _ZNSt8numpunctIcE5_InitERKSt8_Locinfob; };
0x7C59E1B7D48F79DF { global: _ZNSt8numpunctIcE5_TidyEv; };
0xCC2076E09068BE74 { global: _ZNSt8numpunctIcE7_GetcatEPPKNSt6locale5facetEPKS1_; };
0x58ADB88F5177AC25 { global: _ZNSt8numpunctIcEC1EPKcmb; };
0x0839BE4D40A513B1 { global: _ZNSt8numpunctIcEC1ERKSt8_Locinfomb; };
0x4C4B727978DC674C { global: _ZNSt8numpunctIcEC1Em; };
0xC889F897C38ED730 { global: _ZNSt8numpunctIcEC2EPKcmb; };
0x09BD6123EC3D9F25 { global: _ZNSt8numpunctIcEC2ERKSt8_Locinfomb; };
0xD5E55D0F33EDCC3E { global: _ZNSt8numpunctIcEC2Em; };
0x2DFEA1E64AE5D9F0 { global: _ZNSt8numpunctIcED0Ev; };
0xA84A1BDE8E77B363 { global: _ZNSt8numpunctIcED1Ev; };
0xC45BDAE32C6C556F { global: _ZNSt8numpunctIcED2Ev; };
0xBA24402CA39D0199 { global: _ZNSt8numpunctIwE5_InitERKSt8_Locinfob; };
0xD980835A4B85132F { global: _ZNSt8numpunctIwE5_TidyEv; };
0x49D5C56AE7E92C8B { global: _ZNSt8numpunctIwE7_GetcatEPPKNSt6locale5facetEPKS1_; };
0x1FE4F6549F7575DB { global: _ZNSt8numpunctIwEC1EPKcmb; };
0xB3510CD8D74F7F46 { global: _ZNSt8numpunctIwEC1ERKSt8_Locinfomb; };
0x5CE8233206777E3A { global: _ZNSt8numpunctIwEC1Em; };
0x9B8904AAFEDE1956 { global: _ZNSt8numpunctIwEC2EPKcmb; };
0x3102500B16CB7CCD { global: _ZNSt8numpunctIwEC2ERKSt8_Locinfomb; };
0x125288F917A27A15 { global: _ZNSt8numpunctIwEC2Em; };
0x547067441C418391 { global: _ZNSt8numpunctIwED0Ev; };
0x9732B7B8BD6B5896 { global: _ZNSt8numpunctIwED1Ev; };
0x5C39B88D3B6811BA { global: _ZNSt8numpunctIwED2Ev; };
0xFB2ACE5FB3205659 { global: _ZNSt8time_getIcSt19istreambuf_iteratorIcSt11char_traitsIcEEE5_TidyEv; };
0x78C9C17B999914BC { global: _ZNSt8time_getIcSt19istreambuf_iteratorIcSt11char_traitsIcEEE7_GetcatEPPKNSt6locale5facetEPKS5_; };
0xF693DB357C3937D1 { global: _ZNSt8time_getIcSt19istreambuf_iteratorIcSt11char_traitsIcEEEC1EPKcm; };
0x88EE4039F96B4DA0 { global: _ZNSt8time_getIcSt19istreambuf_iteratorIcSt11char_traitsIcEEEC1ERKSt8_Locinfom; };
0xD77C73AE04BC378A { global: _ZNSt8time_getIcSt19istreambuf_iteratorIcSt11char_traitsIcEEEC1Em; };
0x3349FB97BE945721 { global: _ZNSt8time_getIcSt19istreambuf_iteratorIcSt11char_traitsIcEEEC2EPKcm; };
0x97B3ADBE9948E365 { global: _ZNSt8time_getIcSt19istreambuf_iteratorIcSt11char_traitsIcEEEC2ERKSt8_Locinfom; };
0x754F10DB2CC53508 { global: _ZNSt8time_getIcSt19istreambuf_iteratorIcSt11char_traitsIcEEEC2Em; };
0x9A6ABD3B0C18C7BE { global: _ZNSt8time_getIcSt19istreambuf_iteratorIcSt11char_traitsIcEEED0Ev; };
0x0A9F64B0D39EBA7F { global: _ZNSt8time_getIcSt19istreambuf_iteratorIcSt11char_traitsIcEEED1Ev; };
0x74E2A1F7AA9015DD { global: _ZNSt8time_getIcSt19istreambuf_iteratorIcSt11char_traitsIcEEED2Ev; };
0x2266E5341EDF5555 { global: _ZNSt8time_getIwSt19istreambuf_iteratorIwSt11char_traitsIwEEE5_TidyEv; };
0x7B98D0CAE104FBD5 { global: _ZNSt8time_getIwSt19istreambuf_iteratorIwSt11char_traitsIwEEE7_GetcatEPPKNSt6locale5facetEPKS5_; };
0x80ECC884650090C1 { global: _ZNSt8time_getIwSt19istreambuf_iteratorIwSt11char_traitsIwEEEC1EPKcm; };
0xCB487351216B9278 { global: _ZNSt8time_getIwSt19istreambuf_iteratorIwSt11char_traitsIwEEEC1ERKSt8_Locinfom; };
0x276C4EE1CB6DCA9A { global: _ZNSt8time_getIwSt19istreambuf_iteratorIwSt11char_traitsIwEEEC1Em; };
0x005C199DE861E860 { global: _ZNSt8time_getIwSt19istreambuf_iteratorIwSt11char_traitsIwEEEC2EPKcm; };
0x6D4DD2D4E4B5B1CD { global: _ZNSt8time_getIwSt19istreambuf_iteratorIwSt11char_traitsIwEEEC2ERKSt8_Locinfom; };
0x0000000000000000 { global: _ZNSt8time_getIwSt19istreambuf_iteratorIwSt11char_traitsIwEEEC2Em; };
0x00F07DF2054CADBF { global: _ZNSt8time_getIwSt19istreambuf_iteratorIwSt11char_traitsIwEEED0Ev; };
0x413811C75353A7AA { global: _ZNSt8time_getIwSt19istreambuf_iteratorIwSt11char_traitsIwEEED1Ev; };
0x66A73EF89074E10B { global: _ZNSt8time_getIwSt19istreambuf_iteratorIwSt11char_traitsIwEEED2Ev; };
0x41D3D3EEE0D3968D { global: _ZNSt8time_putIcSt19ostreambuf_iteratorIcSt11char_traitsIcEEE5_InitERKSt8_Locinfo; };
0x79CD182C61D2F1CC { global: _ZNSt8time_putIcSt19ostreambuf_iteratorIcSt11char_traitsIcEEE7_GetcatEPPKNSt6locale5facetEPKS5_; };
0xBB9C8ADDB186D7EC { global: _ZNSt8time_putIcSt19ostreambuf_iteratorIcSt11char_traitsIcEEEC1ERKSt8_Locinfom; };
0x00EA1B63107D868B { global: _ZNSt8time_putIcSt19ostreambuf_iteratorIcSt11char_traitsIcEEEC1Em; };
0x22E148989E7E9139 { global: _ZNSt8time_putIcSt19ostreambuf_iteratorIcSt11char_traitsIcEEEC2ERKSt8_Locinfom; };
0xE8D1F4C558FAA7B3 { global: _ZNSt8time_putIcSt19ostreambuf_iteratorIcSt11char_traitsIcEEEC2Em; };
0x5904252F49F64A95 { global: _ZNSt8time_putIcSt19ostreambuf_iteratorIcSt11char_traitsIcEEED0Ev; };
0x87E73D3927C20048 { global: _ZNSt8time_putIcSt19ostreambuf_iteratorIcSt11char_traitsIcEEED1Ev; };
0xBEED01F811A5A25E { global: _ZNSt8time_putIcSt19ostreambuf_iteratorIcSt11char_traitsIcEEED2Ev; };
0x66894372E0D20F44 { global: _ZNSt8time_putIwSt19ostreambuf_iteratorIwSt11char_traitsIwEEE5_InitERKSt8_Locinfo; };
0x6C5DAE542A958416 { global: _ZNSt8time_putIwSt19ostreambuf_iteratorIwSt11char_traitsIwEEE7_GetcatEPPKNSt6locale5facetEPKS5_; };
0xA22DE4A503EAA4C6 { global: _ZNSt8time_putIwSt19ostreambuf_iteratorIwSt11char_traitsIwEEEC1ERKSt8_Locinfom; };
0x5F70EBB42D806422 { global: _ZNSt8time_putIwSt19ostreambuf_iteratorIwSt11char_traitsIwEEEC1Em; };
0x6F52DC886E255149 { global: _ZNSt8time_putIwSt19ostreambuf_iteratorIwSt11char_traitsIwEEEC2ERKSt8_Locinfom; };
0x94E1798EB14D6540 { global: _ZNSt8time_putIwSt19ostreambuf_iteratorIwSt11char_traitsIwEEEC2Em; };
0xEB2A65BD31DBC691 { global: _ZNSt8time_putIwSt19ostreambuf_iteratorIwSt11char_traitsIwEEED0Ev; };
0x000A20FA04F0D9AC { global: _ZNSt8time_putIwSt19ostreambuf_iteratorIwSt11char_traitsIwEEED1Ev; };
0xF0F27DAA69258F67 { global: _ZNSt8time_putIwSt19ostreambuf_iteratorIwSt11char_traitsIwEEED2Ev; };
0xA9BE80EE94A001E6 { global: _ZNSt9bad_allocD0Ev; };
0x9216DD3000C7E1C4 { global: _ZNSt9bad_allocD1Ev; };
0x5A21FCADB56FE6CE { global: _ZNSt9bad_allocD2Ev; };
0x5103E270B83C4B1F { global: _ZNSt9basic_iosIcSt11char_traitsIcEE4initEPSt15basic_streambufIcS1_Eb; };
0x00BAA2C658E5FB60 { global: _ZNSt9basic_iosIwSt11char_traitsIwEE4initEPSt15basic_streambufIwS1_Eb; };
0x0629FB7B6511F9AD { global: _ZNSt9exception18_Set_raise_handlerEPFvRKS_E; };
0xF8D73C2467552D0B { global: _ZNSt9exceptionD0Ev; };
0x06065C18387BA3D8 { global: _ZNSt9exceptionD1Ev; };
0x30E071B5E7CF6548 { global: _ZNSt9exceptionD2Ev; };
0xEB3837CE2678422B { global: _ZNSt9money_getIcSt19istreambuf_iteratorIcSt11char_traitsIcEEE5_InitERKSt8_Locinfo; };
0x3124AF1E671BB378 { global: _ZNSt9money_getIcSt19istreambuf_iteratorIcSt11char_traitsIcEEE7_GetcatEPPKNSt6locale5facetEPKS5_; };
0xECD406B18ED56377 { global: _ZNSt9money_getIcSt19istreambuf_iteratorIcSt11char_traitsIcEEEC1ERKSt8_Locinfom; };
0x6063E8A5D921BA33 { global: _ZNSt9money_getIcSt19istreambuf_iteratorIcSt11char_traitsIcEEEC1Em; };
0x896B5745DB938C70 { global: _ZNSt9money_getIcSt19istreambuf_iteratorIcSt11char_traitsIcEEEC2ERKSt8_Locinfom; };
0x7FED4468354BE42E { global: _ZNSt9money_getIcSt19istreambuf_iteratorIcSt11char_traitsIcEEEC2Em; };
0x6FD412AEE5789E77 { global: _ZNSt9money_getIcSt19istreambuf_iteratorIcSt11char_traitsIcEEED0Ev; };
0xCE40B1F5CD902817 { global: _ZNSt9money_getIcSt19istreambuf_iteratorIcSt11char_traitsIcEEED1Ev; };
0x08294E6E2547CC36 { global: _ZNSt9money_getIcSt19istreambuf_iteratorIcSt11char_traitsIcEEED2Ev; };
0x24E8FAA9F73854BB { global: _ZNSt9money_getIwSt19istreambuf_iteratorIwSt11char_traitsIwEEE5_InitERKSt8_Locinfo; };
0x0D31F5CD306B38EF { global: _ZNSt9money_getIwSt19istreambuf_iteratorIwSt11char_traitsIwEEE7_GetcatEPPKNSt6locale5facetEPKS5_; };
0x7A3FB8E25D4F8E36 { global: _ZNSt9money_getIwSt19istreambuf_iteratorIwSt11char_traitsIwEEEC1ERKSt8_Locinfom; };
0x6D8F58D09DC619B0 { global: _ZNSt9money_getIwSt19istreambuf_iteratorIwSt11char_traitsIwEEEC1Em; };
0x009B6942853C7DB4 { global: _ZNSt9money_getIwSt19istreambuf_iteratorIwSt11char_traitsIwEEEC2ERKSt8_Locinfom; };
0xC79C80142251CFC2 { global: _ZNSt9money_getIwSt19istreambuf_iteratorIwSt11char_traitsIwEEEC2Em; };
0x441DEB6AD7E96437 { global: _ZNSt9money_getIwSt19istreambuf_iteratorIwSt11char_traitsIwEEED0Ev; };
0x6BACAF1CC4AAB15D { global: _ZNSt9money_getIwSt19istreambuf_iteratorIwSt11char_traitsIwEEED1Ev; };
0xED999E187C8CE9EC { global: _ZNSt9money_getIwSt19istreambuf_iteratorIwSt11char_traitsIwEEED2Ev; };
0xEBA02EAA02E7B101 { global: _ZNSt9money_putIcSt19ostreambuf_iteratorIcSt11char_traitsIcEEE4_PutES3_St22_String_const_iteratorISt11_String_valISt13_Simple_typesIcEEEm; };
0xD5D6362897E480C3 { global: _ZNSt9money_putIcSt19ostreambuf_iteratorIcSt11char_traitsIcEEE4_RepES3_cm; };
0xAE207136228BBC8D { global: _ZNSt9money_putIcSt19ostreambuf_iteratorIcSt11char_traitsIcEEE5_InitERKSt8_Locinfo; };
0xC3D7C2CF4A5B1DDC { global: _ZNSt9money_putIcSt19ostreambuf_iteratorIcSt11char_traitsIcEEE7_GetcatEPPKNSt6locale5facetEPKS5_; };
0x99D61CCC96FE6DBD { global: _ZNSt9money_putIcSt19ostreambuf_iteratorIcSt11char_traitsIcEEEC1ERKSt8_Locinfom; };
0x422E5FA4DB79F93D { global: _ZNSt9money_putIcSt19ostreambuf_iteratorIcSt11char_traitsIcEEEC1Em; };
0x6F69DAD03CDDE63F { global: _ZNSt9money_putIcSt19ostreambuf_iteratorIcSt11char_traitsIcEEEC2ERKSt8_Locinfom; };
0x5EA6E97D8980641E { global: _ZNSt9money_putIcSt19ostreambuf_iteratorIcSt11char_traitsIcEEEC2Em; };
0xB36CC6D760182938 { global: _ZNSt9money_putIcSt19ostreambuf_iteratorIcSt11char_traitsIcEEED0Ev; };
0x02713D5966F25A43 { global: _ZNSt9money_putIcSt19ostreambuf_iteratorIcSt11char_traitsIcEEED1Ev; };
0x0032E002882480F2 { global: _ZNSt9money_putIcSt19ostreambuf_iteratorIcSt11char_traitsIcEEED2Ev; };
0x0000000000000000 { global: _ZNSt9money_putIwSt19ostreambuf_iteratorIwSt11char_traitsIwEEE4_PutES3_St22_String_const_iteratorISt11_String_valISt13_Simple_typesIwEEEm; };
0xE90538D2894C90E3 { global: _ZNSt9money_putIwSt19ostreambuf_iteratorIwSt11char_traitsIwEEE4_RepES3_wm; };
0x90999DC68E2E33EF { global: _ZNSt9money_putIwSt19ostreambuf_iteratorIwSt11char_traitsIwEEE5_InitERKSt8_Locinfo; };
0xD2C1DAAC31BD058E { global: _ZNSt9money_putIwSt19ostreambuf_iteratorIwSt11char_traitsIwEEE7_GetcatEPPKNSt6locale5facetEPKS5_; };
0x00455EAC195A586A { global: _ZNSt9money_putIwSt19ostreambuf_iteratorIwSt11char_traitsIwEEEC1ERKSt8_Locinfom; };
0xAE67BE3E8F722393 { global: _ZNSt9money_putIwSt19ostreambuf_iteratorIwSt11char_traitsIwEEEC1Em; };
0x6938D894A0B13C6A { global: _ZNSt9money_putIwSt19ostreambuf_iteratorIwSt11char_traitsIwEEEC2ERKSt8_Locinfom; };
0x8C8BD6147DB8063C { global: _ZNSt9money_putIwSt19ostreambuf_iteratorIwSt11char_traitsIwEEEC2Em; };
0xAA49774A269BD383 { global: _ZNSt9money_putIwSt19ostreambuf_iteratorIwSt11char_traitsIwEEED0Ev; };
0x8671A14E42031478 { global: _ZNSt9money_putIwSt19ostreambuf_iteratorIwSt11char_traitsIwEEED1Ev; };
0xE3EA2CC17B69ECF4 { global: _ZNSt9money_putIwSt19ostreambuf_iteratorIwSt11char_traitsIwEEED2Ev; };
0x3799D9DF0430F957 { global: _ZNSt9type_infoD0Ev; };
0x2CBB2CA188CC3A8C { global: _ZNSt9type_infoD1Ev; };
0xCDBDF8DFADBDE575 { global: _ZNSt9type_infoD2Ev; };
0x6ECA2197566B4571 { global: _ZSt10_GetloctxtIcSt19istreambuf_iteratorIcSt11char_traitsIcEEEiRT0_S5_mPKT_; };
0x157F9E4B662C12D6 { global: _ZSt10_GetloctxtIcSt19istreambuf_iteratorIwSt11char_traitsIwEEEiRT0_S5_mPKT_; };
0x008B827916F44F1B { global: _ZSt10_GetloctxtIwSt19istreambuf_iteratorIwSt11char_traitsIwEEEiRT0_S5_mPKT_; };
0x56B5945F2D60AA7F { global: _ZSt10_Rng_abortPKc; };
0x94A7CA9BA20D3A94 { global: _ZSt10unexpectedv; };
0x793D94B264DEC1B5 { global: _ZSt11_Xbad_allocv; };
0x2FB567934EB30B67 { global: _ZSt11setiosflagsNSt5_IosbIiE9_FmtflagsE; };
0xD61F2115082147BC { global: _ZSt12setprecisioni; };
0x0E21957A9E72079C { global: _ZSt13_Execute_onceRSt9once_flagPFiPvS1_PS1_ES1_; };
0x3C35F4D73894CFEE { global: _ZSt13_Syserror_mapi; };
0x516C8BE8AA11F7A5 { global: _ZSt13_Xregex_errorNSt15regex_constants10error_typeE; };
0x0065BFA132CA5146 { global: _ZSt13get_terminatev; };
0xA8C5EC951759563E { global: _ZSt13resetiosflagsNSt5_IosbIiE9_FmtflagsE; };
0x346D69862A442C91 { global: _ZSt13set_terminatePFvvE; };
0xBB6B4C18E2DAAA71 { global: _ZSt14_Atomic_assertPKcS0_; };
0x667E38299809B566 { global: _ZSt14_Debug_messagePKcS0_j; };
0x366B6BEB6F1E0370 { global: _ZSt14_Random_devicev; };
0x6D1BA3221796941D { global: _ZSt14_Throw_C_errori; };
0xB50228F8620F925A { global: _ZSt14_Xlength_errorPKc; };
0xA33300AF6F01C126 { global: _ZSt14_Xout_of_rangePKc; };
0xCCF582AA483B57EA { global: _ZSt14get_unexpectedv; };
0x12F6B68B80F927A2 { global: _ZSt14set_unexpectedPFvvE; };
0xCBB68C144923E0F1 { global: _ZSt15_Xruntime_errorPKc; };
0xCEE825B717885CCD { global: _ZSt15_sceLibcLocinfoPKc; };
0xBC8F39937190733F { global: _ZSt15future_categoryv; };
0x000A463401569FAE { global: _ZSt15get_new_handlerv; };
0x46A784ACEDDC1475 { global: _ZSt15set_new_handlerPFvvE; };
0x6A8B5A01A40AEB27 { global: _ZSt15system_categoryv; };
0x5B48FABC2C61F4F7 { global: _ZSt16_Throw_Cpp_errori; };
0xB1A4949CF58BABD1 { global: _ZSt16_Xoverflow_errorPKc; };
0x631C1F7021F94342 { global: _ZSt16generic_categoryv; };
0xD2BF2B6F0D9216A9 { global: _ZSt17_Future_error_mapi; };
0x576DEAB76E153D5B { global: _ZSt17iostream_categoryv; };
0x003544F8428C1334 { global: _ZSt18_Xinvalid_argumentPKc; };
0x43504BEF45D5574A { global: _ZSt18uncaught_exceptionv; };
0x3E3C1BAAD51E84F5 { global: _ZSt19_Throw_future_errorRKSt10error_code; };
0x003042E270AA96AB { global: _ZSt19_Xbad_function_callv; };
0x70F35E3806200740 { global: _ZSt22_Get_future_error_whati; };
0x0098320711A69168 { global: _ZSt22_Random_device_entropyv; };
0x000CD6EC0D1667B4 { global: _ZSt25_Rethrow_future_exceptionSt13exception_ptr; };
0xBD4F6CBC9B449D67 { global: _ZSt4setwi; };
0x00A4315E2206D33E { global: _ZSt6_ThrowRKSt9exception; };
0xBD858AD8FCFCBC61 { global: _ZSt7_FiopenPKcNSt5_IosbIiE9_OpenmodeEi; };
0x6AACA3848C7B8DA6 { global: _ZSt7_FiopenPKwNSt5_IosbIiE9_OpenmodeEi; };
0x41F3EE4AA86E6FBA { global: _ZSt7_MP_AddPyy; };
0x96B412B1344C32BE { global: _ZSt7_MP_GetPy; };
0x19ABF55EDD427BE7 { global: _ZSt7_MP_MulPyyy; };
0x3B393E67A4279536 { global: _ZSt7_MP_RemPyy; };
0xE2BACE1C21C0575C { global: _ZSt7setbasei; };
0xC9893CD7D17D4F25 { global: _ZSt8_XLgammad; };
0x6E5D033CFEA41419 { global: _ZSt8_XLgammae; };
0x0D631C1BCCA88246 { global: _ZSt8_XLgammaf; };
0x5F50CDB427B6D8AB { global: _ZSt9_LStrcollIcEiPKT_S2_S2_S2_PKSt8_Collvec; };
0x009BAB94DFB6F6EE { global: _ZSt9_LStrcollIwEiPKT_S2_S2_S2_PKSt8_Collvec; };
0x57AD84D90F1B2556 { global: _ZSt9_LStrxfrmIcEmPT_S1_PKS0_S3_PKSt8_Collvec; };
0x065A0F52DD47087D { global: _ZSt9_LStrxfrmIwEmPT_S1_PKS0_S3_PKSt8_Collvec; };
0xA98867A1EBDDF5B2 { global: _ZSt9terminatev; };
0xD1B186AF8CCB137C { global: _ZTv0_n24_NSiD0Ev; };
0xF94BA3FBE03E235E { global: _ZTv0_n24_NSiD1Ev; };
0x004092780E09BC61 { global: _ZTv0_n24_NSoD0Ev; };
0x92FAA0DFBE8AB09A { global: _ZTv0_n24_NSoD1Ev; };
0x8B39A84C8495A05F { global: _ZTv0_n24_NSt13basic_istreamIwSt11char_traitsIwEED0Ev; };
0xAB4E485EE340D8D1 { global: _ZTv0_n24_NSt13basic_istreamIwSt11char_traitsIwEED1Ev; };
0xD23D63B2929BB859 { global: _ZTv0_n24_NSt13basic_ostreamIwSt11char_traitsIwEED0Ev; };
0x1D290FC91C851474 { global: _ZTv0_n24_NSt13basic_ostreamIwSt11char_traitsIwEED1Ev; };
0x30B5A5F7448558D1 { global: _ZdaPv; };
0x0099F4A8DC46F134 { global: _ZdaPvRKSt9nothrow_t; };
0x4AE73C5B440FC63C { global: _ZdaPvS_; };
0xBF4F59700859CD27 { global: _ZdaPvSt11align_val_t; };
0x747DEE72F4217D26 { global: _ZdaPvSt11align_val_tRKSt9nothrow_t; };
0x14EB79E5935A5499 { global: _ZdaPvm; };
0xEE50A2848D7C37D2 { global: _ZdaPvmRKSt9nothrow_t; };
0x635451F88432E8F8 { global: _ZdaPvmSt11align_val_t; };
0xCFE3FEC429D62C19 { global: _ZdlPv; };
0x31CB069EA57AC911 { global: _ZdlPvRKSt9nothrow_t; };
0xD6FA3AAAAA9AF45E { global: _ZdlPvS_; };
0x6D9C7E1454A59143 { global: _ZdlPvSt11align_val_t; };
0x0EDF649655055D2D { global: _ZdlPvSt11align_val_tRKSt9nothrow_t; };
0x9580F3055139999B { global: _ZdlPvm; };
0xED53C8605A705360 { global: _ZdlPvmRKSt9nothrow_t; };
0x9F0BA3CF138F5F34 { global: _ZdlPvmSt11align_val_t; };
0x85D9B461F31AED34 { global: _Znam; };
0x261E6A51CC224849 { global: _ZnamRKSt9nothrow_t; };
0x00927ACA441D297D { global: _ZnamSt11align_val_t; };
0xB36786B20505F6F9 { global: _ZnamSt11align_val_tRKSt9nothrow_t; };
0x7C99E9B955416CA9 { global: _Znwm; };
0x00AF25310FAD1B28 { global: _ZnwmRKSt9nothrow_t; };
0xDF2C4BA5D283D110 { global: _ZnwmSt11align_val_t; };
0x8905C16C96DF4F99 { global: _ZnwmSt11align_val_tRKSt9nothrow_t; };
0xCACD56E84C2E570E { global: __absvdi2; };
0xD87103F68C3B6637 { global: __absvsi2; };
0xBFD5CD4E6B26CFE3 { global: __absvti2; };
0x00DC20180232C12E { global: __adddf3; };
0x9A12089C3E67CFC2 { global: __addsf3; };
0x00F201BE728E8B7C { global: __addvdi3; };
0x0082C9D615642A66 { global: __addvsi3; };
0x2239689C5902143B { global: __addvti3; };
0x092F756EBF777DA8 { global: __ashldi3; };
0x10250799D11F8627 { global: __ashlti3; };
0x7D267E81B7FC1247 { global: __ashrdi3; };
0xEFED28BB09860F0C { global: __ashrti3; };
0x0A57C2A0AD5979BE { global: __atomic_compare_exchange; };
0x6706A91D401C8A31 { global: __atomic_compare_exchange_1; };
0x33088A75FE9016F2 { global: __atomic_compare_exchange_2; };
0x00964B9580A2B444 { global: __atomic_compare_exchange_4; };
0xB6794080F08AC939 { global: __atomic_compare_exchange_8; };
0x86C9F64DA177A686 { global: __atomic_compare_exchange_n; };
0xE62F264D07A8F61B { global: __atomic_exchange; };
0xCFC95E729087A6A5 { global: __atomic_exchange_1; };
0x1C3BC5334899617A { global: __atomic_exchange_2; };
0x00CA2B487658B981 { global: __atomic_exchange_4; };
0x50ECF6EE481C87C9 { global: __atomic_exchange_8; };
0xA021F879F525C59D { global: __atomic_exchange_n; };
0x41BF3A63942575A1 { global: __atomic_fetch_add_1; };
0xC042269A2D186103 { global: __atomic_fetch_add_2; };
0x53CA4354C7C10D46 { global: __atomic_fetch_add_4; };
0x4AA7276A58E8141C { global: __atomic_fetch_add_8; };
0x00437D07183DD8E3 { global: __atomic_fetch_and_1; };
0x03BD57592D642AA0 { global: __atomic_fetch_and_2; };
0x00117126A4BF62D4 { global: __atomic_fetch_and_4; };
0xC4C92C22BDE75EE8 { global: __atomic_fetch_and_8; };
0x2EF2EE8A2AC593C5 { global: __atomic_fetch_or_1; };
0x6923407F49310BE6 { global: __atomic_fetch_or_2; };
0x00005452E3C68E4A { global: __atomic_fetch_or_4; };
0xE5929ABDC046EDE3 { global: __atomic_fetch_or_8; };
0x1D60493AC809053F { global: __atomic_fetch_sub_1; };
0xCAF86347B3D34607 { global: __atomic_fetch_sub_2; };
0x009940B6D62F1605 { global: __atomic_fetch_sub_4; };
0x2BE9351E5863CAE0 { global: __atomic_fetch_sub_8; };
0x69673E2F21C3D6F9 { global: __atomic_fetch_xor_1; };
0x003D9A0C627EA0D9 { global: __atomic_fetch_xor_2; };
0xA4F7580EBD4A0EC2 { global: __atomic_fetch_xor_4; };
0x0F0DE279BDAB3265 { global: __atomic_fetch_xor_8; };
0x25958484B4883284 { global: __atomic_is_lock_free; };
0xFA2CBE05E732155C { global: __atomic_load; };
0x71682F2E248948E4 { global: __atomic_load_1; };
0xB9FAA22E68E205E3 { global: __atomic_load_2; };
0x17E9B6B4E320793A { global: __atomic_load_4; };
0xF0AC1F9643ADBD9F { global: __atomic_load_8; };
0x43AA2A12779F650F { global: __atomic_load_n; };
0x0000000000000000 { global: __atomic_store; };
0x645EA1A6C4D9DA6F { global: __atomic_store_1; };
0x0026390489E7FD36 { global: __atomic_store_2; };
0xE2D0C5D03FAA7569 { global: __atomic_store_4; };
0x000C44261C294419 { global: __atomic_store_8; };
0x19DC2E3D86D5A4FE { global: __atomic_store_n; };
0x8027FBF9A1848675 { global: __clzdi2; };
0xA6D2FC5D6829192E { global: __clzsi2; };
0x8CFCB0A15B0F551F { global: __clzti2; };
0x3AF6D8B521A7CC59 { global: __cmpdi2; };
0xBB690F1245077EC8 { global: __cmpti2; };
0xC833EE574497A7B8 { global: __ctzdi2; };
0xD8DBE18220537151 { global: __ctzsi2; };
0xA25043CC3D6B5F66 { global: __ctzti2; };
0x2092958EC9B1C562 { global: __cxa_allocate_dependent_exception; };
0x71F017BABBDF979A { global: __cxa_allocate_exception; };
0xB6CBC49A77A7CF8F { global: __cxa_atexit; };
0xA41C5A7E5964BEDD { global: __cxa_bad_cast; };
0xC5C73A0D370BF100 { global: __cxa_bad_typeid; };
0xDDC514CA94333222 { global: __cxa_begin_catch; };
0xBAC29BBAFCB68508 { global: __cxa_call_unexpected; };
0x0713DE1FD4D372CE { global: __cxa_current_exception_type; };
0x458F26425860EE62 { global: __cxa_current_primary_exception; };
0x31014F02A40FB75B { global: __cxa_decrement_exception_refcount; };
0xCCC09802A3519657 { global: __cxa_demangle; };
0x957FB814D524945D { global: __cxa_end_catch; };
0x1F67BCB7949C4067 { global: __cxa_finalize; };
0x901C6DE4BC2D2C0E { global: __cxa_free_dependent_exception; };
0x9CE204B30603E088 { global: __cxa_free_exception; };
0x63A4A5E17C3B81F0 { global: __cxa_get_exception_ptr; };
0xDEB2496FCD420CCE { global: __cxa_get_globals; };
0xB8245E77B4AF5F91 { global: __cxa_get_globals_fast; };
0xD9E99A6A5B96CD4C { global: __cxa_guard_abort; };
0xDC63E98D0740313C { global: __cxa_guard_acquire; };
0xF6B01E00D4F6B721 { global: __cxa_guard_release; };
0x3ECAD1520EBBD4AD { global: __cxa_increment_exception_refcount; };
0xCEBD3DE04437F56C { global: __cxa_pure_virtual; };
0x64BF455789895F1A { global: __cxa_rethrow; };
0xA8A422357F75206A { global: __cxa_rethrow_primary_exception; };
0xBE4BAE2DF8674992 { global: __cxa_throw; };
0x7933FD333E0A918E { global: __divdc3; };
0x99D1A02C00ECABC0 { global: __divdf3; };
0x00F5D6987AEFB460 { global: __divdi3; };
0x00D6BB3887B16AF5 { global: __divmoddi4; };
0xAED044366CFC2307 { global: __divmodsi4; };
0x75C6A21422ADA038 { global: __divsc3; };
0x9EE7EE7D30788DC2 { global: __divsf3; };
0xCDD27719701C23D3 { global: __divsi3; };
0x5D4E322CABDC0E1D { global: __divti3; };
0x48D7419BEB0D7CCE { global: __divxc3; };
0x84C01EF93592F664 { global: __dynamic_cast; };
0xF05E769DFED50D2F { global: __eqdf2; };
0x2E65C8A5D1E9A413 { global: __eqsf2; };
0xEB353EFB5B5ACA30 { global: __extendsfdf2; };
0xD48074537AD4B41C { global: __fedisableexcept; };
0x34338B493153D67B { global: __feenableexcept; };
0x1358B0058906DC23 { global: __fflush; };
0xAF7B4D1A8549D980 { global: __ffsdi2; };
0x6F9E03BD86441E3E { global: __ffsti2; };
0xABD487A7EE5238E4 { global: __fixdfdi; };
0xB1A34244D7E379E8 { global: __fixdfsi; };
0x718E3209675C4D71 { global: __fixdfti; };
0x00D1EA32505A0DCA { global: __fixsfdi; };
0xDEA426CF5D7215A0 { global: __fixsfsi; };
0x207AB621A6385068 { global: __fixsfti; };
0x87C9DB4AFC34B3E3 { global: __fixunsdfdi; };
0xE96C05B4DBE70DA8 { global: __fixunsdfsi; };
0xACBBB2A6FF62003C { global: __fixunsdfti; };
0x41AE87511DE1D64E { global: __fixunssfdi; };
0x0035C66A15319106 { global: __fixunssfsi; };
0x982112454A99FA6C { global: __fixunssfti; };
0x0C6F1D0F1F5957BD { global: __fixunsxfdi; };
0x76D32EF730839F7B { global: __fixunsxfsi; };
0x974A82D01475178E { global: __fixunsxfti; };
0xDF583E6097F57C79 { global: __fixxfdi; };
0x00BAC403452D4767 { global: __fixxfti; };
0x04C54811BC293FEF { global: __floatdidf; };
0xD9248ADD414FAA04 { global: __floatdisf; };
0x3153ED21FDCCB4BF { global: __floatdixf; };
0x5FB036D428455CF4 { global: __floatsidf; };
0xADD86DEE9C2935F3 { global: __floatsisf; };
0x12DA4CF50772F03E { global: __floattidf; };
0x5650E93D83972F9F { global: __floattisf; };
0x749BD559CDA338FE { global: __floattixf; };
0xD51371A57A555ACE { global: __floatundidf; };
0xF6D9C85456EF3ABC { global: __floatundisf; };
0xDC0F51552C06F01D { global: __floatundixf; };
0x39DBCC24257B3B1A { global: __floatunsidf; };
0x442DD506BDA5F78A { global: __floatunsisf; };
0x89BB3A8C8474070D { global: __floatuntidf; };
0x28B7DDF20E31A7E7 { global: __floatuntisf; };
0x39DCCB51C04B85BE { global: __floatuntixf; };
0xAA55A245F389C750 { global: __fpclassifyd; };
0xCFB68209DF6132C2 { global: __fpclassifyf; };
0xCF057BF5927DA805 { global: __fpclassifyl; };
0x857036E066C03C19 { global: __gedf2; };
0x99D2C6C415E5EA79 { global: __gesf2; };
0xD4FBC89B3EB26F83 { global: __gtdf2; };
0x2026343F1EB38E3A { global: __gtsf2; };
0x5F02C0E5C4C78EDE { global: __gxx_personality_v0; };
0xEE9EE44C025CB868 { global: __inet_addr; };
0x6BB4E80CFB0842B7 { global: __inet_aton; };
0xEA2E5A2EBC51846D { global: __inet_ntoa; };
0x1F6403FA43696BE5 { global: __inet_ntoa_r; };
0x7612B5E822B08508 { global: __isfinite; };
0x43CA6F2629945A2B { global: __isfinitef; };
0x00DF30835DAB5253 { global: __isfinitel; };
0x00574DA816FF89CC { global: __isinf; };
0xAC333201FD4986E8 { global: __isinff; };
0x80B1A647D69A9F87 { global: __isinfl; };
0x19FC40A7D5F28AAB { global: __isnan; };
0x940F786604FEBCC3 { global: __isnanf; };
0x601447347E3E743A { global: __isnanl; };
0x7C63D16BA4FE0AEF { global: __isnormal; };
0x5A462704716C996E { global: __isnormalf; };
0x4B79C557A4D1D43C { global: __isnormall; };
0x009BB148BD205B30 { global: __kernel_cos; };
0xEEBBB070C0895462 { global: __kernel_cosdf; };
0x18B343A0060D94B4 { global: __kernel_rem_pio2; };
0xCE9CBB2E74CBE69D { global: __kernel_sin; };
0xD8BBDCECA5AD12BB { global: __kernel_sindf; };
0x17BF04088091C61A { global: __ledf2; };
0x85B895F6F1EA4E0A { global: __lesf2; };
0xF662A3569A45B0BD { global: __longjmp; };
0xD7C13580E1FB7269 { global: __lshrdi3; };
0xD62440A84A842F46 { global: __lshrti3; };
0xB5C0496B6B18C74C { global: __ltdf2; };
0xDB9F72E7B65D6772 { global: __ltsf2; };
0x8101554458058B8F { global: __moddi3; };
0x934BC0472262F685 { global: __modsi3; };
0x27C2511DC50A58FE { global: __modti3; };
0x000F81DFD22939C5 { global: __muldc3; };
0x003BE06FCE874A2F { global: __muldf3; };
0x1DFF213E50E856CC { global: __muldi3; };
0xC156C106BAA1C1DC { global: __mulodi4; };
0x0C3C4DBECD5AF633 { global: __mulosi4; };
0x00F97E723453DB0F { global: __muloti4; };
0xCBE13E2146585665 { global: __mulsc3; };
0x0579A7EA1039A343 { global: __mulsf3; };
0xCE100815520DD43B { global: __multi3; };
0x5327E9B2CE5C6431 { global: __mulvdi3; };
0xB4583311D7E61232 { global: __mulvsi3; };
0xEA073543BBAEDB8E { global: __mulvti3; };
0x8195AC0EB99E06C8 { global: __mulxc3; };
0xA1CC888899C95B6E { global: __nedf2; };
0xB56238123F64F416 { global: __negdf2; };
0x463E2ACB8E32614C { global: __negdi2; };
0xE1FF90E4A6B7131D { global: __negsf2; };
0x6687E2BF53CC991E { global: __negti2; };
0x7E1E78211C460544 { global: __negvdi2; };
0xEF19ECBE3BAAB594 { global: __negvsi2; };
0x004167FDBD8808EE { global: __negvti2; };
0x39667764B920C9EF { global: __nesf2; };
0x28ECBB31E43B3805 { global: __opendir2; };
0x44379407A2468B55 { global: __paritydi2; };
0xF71527210E77028E { global: __paritysi2; };
0xBC13F8CAD3515E6D { global: __parityti2; };
0x9B84BE96446F4D56 { global: __popcountdi2; };
0x2019FDAA35A75C8C { global: __popcountsi2; };
0x975C33E51E9C2311 { global: __popcountti2; };
0x1FEF1404EC1F49C2 { global: __powidf2; };
0x122324810B0E7D4D { global: __powisf2; };
0x000D223B6F3D89B4 { global: __powixf2; };
0x00470E09DB6B6ED5 { global: __signbit; };
0x0A341138B07CF1AE { global: __signbitf; };
0x0A3F352CF12B3C27 { global: __signbitl; };
0x7C8B244C55FDA7AF { global: __srefill; };
0xC839F066C3275F44 { global: __srget; };
0x1CB0DC7C650C3566 { global: __subdf3; };
0x15EC9E9477D03F3A { global: __subsf3; };
0xFA4BF20466BEE552 { global: __subvdi3; };
0x00CBC8E33FA6C75B { global: __subvsi3; };
0x71BC8B339AABBC7B { global: __subvti3; };
0x4CFE8836043A378A { global: __swbuf; };
0xF962E0CF1BF9C580 { global: __sync_fetch_and_add_16; };
0x5E602ABA9AE76863 { global: __sync_fetch_and_and_16; };
0x184E08D9701DE06E { global: __sync_fetch_and_or_16; };
0x6762340563C03466 { global: __sync_fetch_and_sub_16; };
0x0000000000000000 { global: __sync_fetch_and_xor_16; };
0xB9F65D0B3BBC9CC1 { global: __sync_lock_test_and_set_16; };
0xD8CF5564660F1CB2 { global: __truncdfsf2; };
0x49993E171597740B { global: __ucmpdi2; };
0x74B9AF41F1BC6A6E { global: __ucmpti2; };
0xB57F040F8B8802C4 { global: __udivdi3; };
0x116584040F8B770F { global: __udivmoddi4; };
0x3CF748BD7C144300 { global: __udivmodsi4; };
0x95C364DC0AF9AD44 { global: __udivmodti4; };
0x3F13F53C576EF4E4 { global: __udivsi3; };
0xF34DA9142C02F70D { global: __udivti3; };
0xFB08F6EC3CD13E9A { global: __umoddi3; };
0xA78BD8AE5B15A431 { global: __umodsi3; };
0x10B4ABE6A9B82B53 { global: __umodti3; };
0x103BE4C3459A88EC { global: __unorddf2; };
0xCF43A1C201B70629 { global: __unordsf2; };
0xC80679BCEA6606EB { global: __vfprintf; };
0x521288EB3F565AEA { global: _err; };
0x888EA41B1817CDC5 { global: _getprogname; };
0x6F3404C72D7CF592 { global: _init_env; };
0xE8D08EAABDDC0FBE { global: _init_tls; };
0x467AA5BC49AF91DC { global: _malloc_finalize_lv2; };
0xDB5285844403277B { global: _malloc_fini; };
0xCFC18F890C1A0046 { global: _malloc_init; };
0xDB4714934A97F73A { global: _malloc_init_lv2; };
0x57DE292EBB9DB8B8 { global: _malloc_postfork; };
0x68B6324B82B1EAB4 { global: _malloc_prefork; };
0x4A8A6D85BF73B592 { global: _malloc_thread_cleanup; };
0x28D34D6F24627AA4 { global: _new_setup; };
0x00BB75DFA8DBA631 { global: _readdir_unlocked; };
0xED9172DA6F6B7390 { global: _reclaim_telldir; };
0xE45A04F95DC08F47 { global: _rtld_addr_phdr; };
0x47640AA378412E4C { global: _rtld_atfork_post; };
0x008BBBFCF941A095 { global: _rtld_atfork_pre; };
0x7661C4554A83606C { global: _rtld_error; };
0x01D6182A0B4F96A8 { global: _rtld_get_stack_prot; };
0x811C385EBCED2784 { global: _rtld_thread_init; };
0xD676785DF9F2A77F { global: _sceLibcGetMallocParam; };
0x0E8DF33E9B178F5A { global: _seekdir; };
0x003C95BE3B8A63E8 { global: _thread_init; };
0xD642299995F58F0F { global: _thread_init_stub; };
0x5D0144F18E7C5993 { global: _warn; };
0x2F54814E40BE0AFC { global: abort; };
0x4A662B3BBF4DCDE2 { global: abort_handler_s; };
0x61EDB4B8D9E58250 { global: abs; };
0x24172062E5BC94F5 { global: acos; };
0x00408C7448BF2387 { global: acosf; };
0x0000000000000000 { global: acosh; };
0x005C9A7609BD2D45 { global: acoshf; };
0xBB5E18D47161D2E6 { global: acoshl; };
0x887E1800845C79C0 { global: acosl; };
0x0D05C9ADA09CD6B0 { global: alarm; };
0xD81B6483C936E198 { global: aligned_alloc; };
0x8D3DF1886A40DC1E { global: asctime; };
0x00A8F7BB879267B9 { global: asctime_s; };
0xECBCB9DB368BE384 { global: asin; };
0x001995A315820516 { global: asinf; };
0xD9E429A938C9E58E { global: asinh; };
0xC8F3EDA7544C8A1C { global: asinhf; };
0x000088295982EB80 { global: asinhl; };
0x0000000000000000 { global: asinl; };
0x70E6226B6744D089 { global: asprintf; };
0x1C2F2F6C94AD6156 { global: at_quick_exit; };
0x39799AB8B750F246 { global: atan; };
0x001D46D998E9D30E { global: atan2; };
0x00107C7BD7703DF5 { global: atan2f; };
0xF55798F308AA7FC3 { global: atan2l; };
0x00C1E0EE83C40394 { global: atanf; };
0x6236E9C57A62E999 { global: atanh; };
0x70F1B27391468F2D { global: atanhf; };
0x6B704DAA88CBE0B3 { global: atanhl; };
0x2AF3873D3CF9F796 { global: atanl; };
0xF06D8B07E037AF38 { global: atexit; };
0x0049123A4BD07E6B { global: atof; };
0x7CFC72A626F3D8C6 { global: atoi; };
0xFA6CBD8DD1C23084 { global: atol; };
0x7CB714E46E90AE3B { global: atoll; };
0x8C54A6960CB21148 { global: backtrace_game; };
0xAE0E4910194A0AEA { global: basename; };
0xBEC2BA2F346D44B2 { global: basename_r; };
0xE538DA27090B5B11 { global: bcmp; };
0x44CA3B8F48933DF0 { global: bcopy; };
0x35EB0881399F1744 { global: bsearch; };
0x8735FCEC2FB30C06 { global: bsearch_s; };
0x2C4BE6DB94B18BB2 { global: btowc; };
0xF68897D64C9E79D0 { global: bzero; };
0x10E2D07CD67D1E91 { global: c16rtomb; };
0x333B32706E9162DA { global: c32rtomb; };
0xD97E5A8058CAC4C7 { global: calloc; };
0xE599043F746AEC0B { global: cbrt; };
0x1A57A547D10479C9 { global: cbrtf; };
0x0094ED35989703A8 { global: cbrtl; };
0x81A71F3A63BC84DB { global: ceil; };
0x18052E2CA1A1B02C { global: ceilf; };
0x6892A7E97FB8D19F { global: ceill; };
0x4ADF676F14A87B39 { global: clearerr; };
0x718364F4CFBB6246 { global: clearerr_unlocked; };
0x4193FA23D659C691 { global: clock; };
0x9FCA2720147841D9 { global: clock_1700; };
0x5DEA5DA9E85561EE { global: closedir; };
0x044172D5916FF05C { global: copysign; };
0x00C74E223B3975C6 { global: copysignf; };
0x8FCE27486E15D01D { global: copysignl; };
0xD96137053615C0A3 { global: cos; };
0x003FA14D33393629 { global: cosf; };
0x9BB88B4DA3BD44CB { global: cosh; };
0x4424007DF90487D0 { global: coshf; };
0x5CAD91E3ACB1D237 { global: coshl; };
0xC7C75CE58F331607 { global: cosl; };
0xD2E014B37858B86E { global: ctime; };
0xD94161F9829FBB39 { global: ctime_s; };
0x5A7E88DF05404D41 { global: daemon; };
0x7EA2EB59259C187C { global: devname; };
0x04800B3054D9EF92 { global: devname_r; };
0x005559FBE19CA112 { global: difftime; };
0x138C19686D734857 { global: dirname; };
0xDA06DC96D937B301 { global: div; };
0x588835D6B03E3116 { global: drand48; };
0xE4EA63A85B3CCAFF { global: drem; };
0x1ADE514F8D7B1060 { global: dremf; };
0x167720725D6D9D78 { global: erand48; };
0xA1781AA865675B9A { global: erf; };
0x6AB20A2E57A7DAC8 { global: erfc; };
0x22F17DF32979BB8B { global: erfcf; };
0x7F661B323D2005FF { global: erfcl; };
0x45E3C0DDB0C126AA { global: erff; };
0x7CD1F8B6C97BAC1F { global: erfl; };
0x69E78C6745EB36C6 { global: err; };
0xF5A3833D900A3A60 { global: err_set_exit; };
0x162846D82B9D50DB { global: err_set_file; };
0x002E32D82453FD31 { global: errc; };
0xB7CB050A02400A51 { global: errx; };
0xB8C7A2D56F6EC8DA { global: exit; };
0x35569D7E7CD08474 { global: exp; };
0x76769E1976E33FA1 { global: exp2; };
0x00C2E010B63FA9E2 { global: exp2f; };
0x00F4ED57764A304A { global: exp2l; };
0xF33B2ED385CDB19E { global: expf; };
0xA8CA767D30C2C8CA { global: expl; };
0x82A29F3A225A08EA { global: expm1; };
0xDC48317C345E7DDC { global: expm1f; };
0x8D54B6EB71C7D5BD { global: expm1l; };
0xDFCF0B70C5874420 { global: fabs; };
0x7E64F67233E8581B { global: fabsf; };
0x00C00AF25F9D4E6C { global: fabsl; };
0xBA874B632522A76D { global: fclose; };
0x0070148C601EC955 { global: fcloseall; };
0x66CE29E917A60F13 { global: fdim; };
0xC9BF625013E4492D { global: fdimf; };
0x20CB7E50EE58A102 { global: fdiml; };
0xA9D9478D36BD850E { global: fdopen; };
0x8FE5E3A11488BF05 { global: fdopendir; };
0x72AB7C7A6107DE44 { global: feclearexcept; };
0xCB85A53BCAB31EA2 { global: fedisableexcept; };
0xBAD2D6EEE5E6DD2B { global: feenableexcept; };
0xA6CC7462200A9BB9 { global: fegetenv; };
0x56D4647EC0F6F763 { global: fegetexcept; };
0x9B240341AA5825DC { global: fegetexceptflag; };
0x01E6530829B542A7 { global: fegetround; };
0x003F7F09BD7B8AB8 { global: fegettrapenable; };
0xD6476E29732AC7B9 { global: feholdexcept; };
0x2F170453E202BBC5 { global: feof; };
0x36EC9DA1F1DC475C { global: feof_unlocked; };
0x3487C535CC9E093A { global: feraiseexcept; };
0x007C7284DF7A772E { global: ferror; };
0xCB16C6CC1402E710 { global: ferror_unlocked; };
0x0000000000000000 { global: fesetenv; };
0x16EC5A519B164E89 { global: fesetexceptflag; };
0x00840259EC506911 { global: fesetround; };
0xBB96BB39FCA6AA58 { global: fesettrapenable; };
0xA558E2B1BBED40A5 { global: fetestexcept; };
0x6174388176A60AB6 { global: feupdateenv; };
0x3148C2E256C7ACAE { global: fflush; };
0x004B85DC5D9FF130 { global: fgetc; };
0x28A8148874981911 { global: fgetln; };
0x48796DEC484EB6A0 { global: fgetpos; };
0x0029D3E750BA6E1B { global: fgets; };
0x6F36D0E734366378 { global: fgetwc; };
0x17CD6129EDA4DAD8 { global: fgetws; };
0x00166766CB2C07F5 { global: fileno; };
0x9319B4CF84F998C2 { global: fileno_unlocked; };
0x4C9150166F96DF08 { global: finite; };
0xDA7AB327CEF3B01F { global: finitef; };
0x8469631D911F1745 { global: flockfile; };
0x9A971380CCE1518F { global: floor; };
0x98A8550E661C8960 { global: floorf; };
0x00D3A41A4750A99E { global: floorl; };
0x1B7AA3394BBB2A73 { global: flsl; };
0x60A6CBE4A47A4432 { global: fma; };
0x4694D1F95635E6CB { global: fmaf; };
0xB8C78B75BC2179A8 { global: fmal; };
0x7E23A099690FF977 { global: fmax; };
0x2F2C760F350BECB7 { global: fmaxf; };
0xD07E53569AD04A40 { global: fmaxl; };
0x894D33E9275435B2 { global: fmin; };
0xB9545C336C8574FE { global: fminf; };
0x0D0ECAEACF1EB966 { global: fminl; };
0xA4AC2C96C3149929 { global: fmod; };
0x00F3C56F0331D58F { global: fmodf; };
0x0354794F4C4ECA7F { global: fmodl; };
0xC5E60EE2EEEEC89D { global: fopen; };
0x34BF37EA038B00DB { global: fopen_s; };
0x7DF7F010B5CD5450 { global: fprintf; };
0x0000000000000000 { global: fprintf_s; };
0xCB50A1DA75ECE084 { global: fpurge; };
0x006992BC94D7A243 { global: fputc; };
0x42B659749F17B17D { global: fputs; };
0xD50256C6807AA42A { global: fputwc; };
0x00EE74491573319C { global: fputws; };
0x95B07E52566A546D { global: fread; };
0xB4886CAA3D2AB051 { global: free; };
0x3763A3C092468DE4 { global: freeifaddrs; };
0x8245A09F4A7501F5 { global: freopen; };
0x35DBC08B7E2F5778 { global: freopen_s; };
0x009004DD88E0AC69 { global: frexp; };
0x69A0CC186917171A { global: frexpf; };
0x61993DB073B4C8D8 { global: frexpl; };
0x9E92E93D3692B878 { global: fscanf; };
0xBE3D96522D8BADF1 { global: fscanf_s; };
0x00AD0155057A42C6 { global: fseek; };
0xA646222B0D3D3D10 { global: fseeko; };
0xECF912CFEAA74EDA { global: fsetpos; };
0x00E88336BA9DBE68 { global: fstatvfs; };
0x41ACF2F0B9974EFC { global: ftell; };
0xE6A3F589542475C9 { global: ftello; };
0x874E4E1CE31934CC { global: ftrylockfile; };
0xBC073DCBC510DF5A { global: funlockfile; };
0xC3A02AEBC745A0FE { global: fwide; };
0x65101C9F774F5660 { global: fwprintf; };
0xF6438510B89CECF9 { global: fwprintf_s; };
0x329C61321F1016BA { global: fwrite; };
0x6BA0983BC60ECDFC { global: fwscanf; };
0x068E70B574A3E247 { global: fwscanf_s; };
0x00043C55D9F2DED8 { global: gamma; };
0x00ABE01D5441E229 { global: gamma_r; };
0xB19F7740C6C64496 { global: gammaf; };
0x137458BD66D82E09 { global: gammaf_r; };
0xF10EB424B27A46FE { global: getc; };
0xE6D336E7646CD9F7 { global: getc_unlocked; };
0x2F75D98AE2AA6543 { global: getchar; };
0x1F4A550EF4AE0154 { global: getchar_unlocked; };
0x000D88AF3759CE25 { global: getcwd; };
0xB266D0BA47F16093 { global: getenv; };
0x009EFC4159AD220E { global: gethostname; };
0x008E058BEB00EBA2 { global: getifaddrs; };
0x554B626CA242B75A { global: getopt; };
0xF155572710799E59 { global: getopt_long; };
0xA2D86CEA313206AA { global: getopt_long_only; };
0xECFB31D43940C84E { global: getprogname; };
0x3A4F9261CA0BD7D6 { global: gets; };
0x95BF872CB6646DBC { global: gets_s; };
0x0282C0D8C45626F7 { global: getw; };
0x0A8B1310B3791139 { global: getwc; };
0x9F69960EC868968F { global: getwchar; };
0xD6679C3FB4602360 { global: gmtime; };
0xE5B05A7062F22CEB { global: gmtime_s; };
0x605A0EC391A490AD { global: hypot; };
0xD87CE049CA10ABDA { global: hypot3; };
0xC6545C73B45CAA0A { global: hypot3f; };
0x6839A5CB7E800202 { global: hypot3l; };
0x8B3DAC8401852317 { global: hypotf; };
0x8C90BBC75F207BC9 { global: hypotl; };
0x38318E3577129B3E { global: ignore_handler_s; };
0x87AA5504A8DC2E25 { global: ilogb; };
0xD1D42B61677B83DE { global: ilogbf; };
0xC17B35D9E0F7BAF0 { global: ilogbl; };
0x52067B46193AD1C4 { global: imaxabs; };
0x005745E6ADF74CF4 { global: imaxdiv; };
0xB774451E7D1B4CF8 { global: index; };
0xB0106E5E62792A39 { global: inet_addr; };
0x2124CBCAD3464F47 { global: inet_aton; };
0xEE24E9ECEE953974 { global: inet_ntoa; };
0x8B71356309F8B7EF { global: inet_ntoa_r; };
0x0000000000000000 { global: initstate; };
0xE2E249362F82F709 { global: isalnum; };
0xFB153458A4FC9837 { global: isalpha; };
0x9619EB08E0624C6A { global: isblank; };
0x6A4A4612B035CDD8 { global: iscntrl; };
0x25606BE4DF33C8D1 { global: isdigit; };
0xAEB8316A442DBDCD { global: isgraph; };
0xDAAE4F3E1EC7B0A1 { global: isinf; };
0x2AA613AAD49F1A8B { global: islower; };
0xDB4AA3FBB3BAF576 { global: isnan; };
0xDE917B6D44881FCA { global: isnanf; };
0x78690EA53A23265E { global: isprint; };
0x0023A67AF381360B { global: ispunct; };
0xC1ACF0DB1DA6DC34 { global: isspace; };
0x19C14A9532443242 { global: isupper; };
0xC0398BD841F4081B { global: iswalnum; };
0x000EA0C04436F568 { global: iswalpha; };
0xA7A0DB3343801CDA { global: iswblank; };
0xE80FB5619EFDA859 { global: iswcntrl; };
0xE3913BA264B4BEF7 { global: iswctype; };
0x9F4913FBC11E8B3B { global: iswdigit; };
0xC231B41B20B268FD { global: iswgraph; };
0x3A4F0A3F2DE7165B { global: iswlower; };
0x0053B22153854407 { global: iswprint; };
0x0043EF11991A2EC5 { global: iswpunct; };
0xBEAB72B6BC602CCB { global: iswspace; };
0xD5072BACBF540D14 { global: iswupper; };
0x7239928D1967300B { global: iswxdigit; };
0xB2BCD25526CA9FB3 { global: isxdigit; };
0xB5C3749E07177A08 { global: j0; };
0x466137684F161EE6 { global: j0f; };
0x04D6D6742F4983EE { global: j1; };
0xB955DC8AFBD51F35 { global: j1f; };
0x41D13B02B8F3C68B { global: jn; };
0x003392899AA80A33 { global: jnf; };
0x33B2A6460F421119 { global: jrand48; };
0xC7366242045E4461 { global: labs; };
0xC138C327A227DC28 { global: lcong48; };
0x26BC0520CCCA36BD { global: ldexp; };
0x927D32898784C600 { global: ldexpf; };
0x697F07DBE0419561 { global: ldexpl; };
0x81F3F48A6E59DE0D { global: ldiv; };
0x00A24307441BE46D { global: lgamma; };
0x1232FE818D46DA59 { global: lgamma_r; };
0x008A27E387748B05 { global: lgammaf; };
0x4651948AAC8A7FD2 { global: lgammaf_r; };
0x0094F629B0E6FDB0 { global: lgammal; };
0xAC746BFB5DF50136 { global: llabs; };
0x89584966F00ED9A4 { global: lldiv; };
0x0000000000000000 { global: llrint; };
0x28FB10034A62B3CA { global: llrintf; };
0xE9B440356358203D { global: llrintl; };
0x00C01BD71783BAC6 { global: llround; };
0x7908411674CEA78D { global: llroundf; };
0xC11B394B9E338E6D { global: llroundl; };
0xD2195F5B53B801AE { global: localeconv; };
0x0079F84A61251861 { global: localtime; };
0x7E288D0E73412956 { global: localtime_s; };
0x00AED57B8D60BA62 { global: log; };
0x5AE31B3C128DD535 { global: log10; };
0x961A5DE9693A71CB { global: log10f; };
0x093E1A474B418244 { global: log10l; };
0x55FB0C2FE9FD7033 { global: log1p; };
0x3057BDD6CF1AA509 { global: log1pf; };
0xEFBA9DD24B13C1D2 { global: log1pl; };
0x6390E1B832869674 { global: log2; };
0x86C8BD76BCC74769 { global: log2f; };
0x0009F3AB1A306345 { global: log2l; };
0xA302AE7A0654E1EC { global: logb; };
0x456AB2AF538ABB0E { global: logbf; };
0xB7125339ED036FA3 { global: logbl; };
0x4505CB6DD4F695CE { global: logf; };
0x001221DF68B0C898 { global: logl; };
0x94A10DD8879B809D { global: longjmp; };
0xE48A6835FC6EF385 { global: lrand48; };
0x0054E28E811ECBD9 { global: lrint; };
0xADC56FE62BCC858D { global: lrintf; };
0x8E9D9EF914AB728C { global: lrintl; };
0x002775EE192702D1 { global: lround; };
0x0BA81609624A33E5 { global: lroundf; };
0xE084C04A02F9D2E7 { global: lroundl; };
0x1A2A5C6DD0CCE5C2 { global: makecontext; };
0x8105FEE060D08E93 { global: malloc; };
0x10238FA54404721D { global: malloc_check_memory_bounds; };
0x27A16814DC9DA452 { global: malloc_finalize; };
0x004A51B514DCB437 { global: malloc_get_footer_value; };
0x3667B37352E1ED34 { global: malloc_get_malloc_state; };
0xA304FACCB271AD3B { global: malloc_initialize; };
0xD05D3C58E3FC1B7B { global: malloc_report_memory_blocks; };
0x0000000000000000 { global: malloc_stats; };
0x2AE3AE0F9F21AA7E { global: malloc_stats_fast; };
0x3437127DC619442F { global: malloc_usable_size; };
0x85EC347D1788D87D { global: mblen; };
0x8FA3A749C5A9BBB9 { global: mbrlen; };
0xA203C30682E609C0 { global: mbrtoc16; };
0x4C47787A0C5199D1 { global: mbrtoc32; };
0xA951E9BF43F1A2E2 { global: mbrtowc; };
0x51B9D599C93EA35D { global: mbsinit; };
0xF21CA0B3A0FD2816 { global: mbsrtowcs; };
0xD4D16F02ECF0F1D0 { global: mbsrtowcs_s; };
0x554CE35E49CF3C1B { global: mbstowcs; };
0xB5D700AA0092FAE2 { global: mbstowcs_s; };
0xE9E53DC57F6811D4 { global: mbtowc; };
0x5237F72B332F4662 { global: memalign; };
0xF2EF253F3504ABE5 { global: memchr; };
0x0DF8AF3C0AE1B9C8 { global: memcmp; };
0x437541C425E1507B { global: memcpy; };
0x3452ECF9D44918D8 { global: memcpy_s; };
0xF8FE854461F82DF0 { global: memmove; };
0x079F7ECD040271B5 { global: memmove_s; };
0xE46D8E354CD18236 { global: memrchr; };
0xF334C5BC120020DF { global: memset; };
0x87C1B0A8F15BBBA2 { global: memset_s; };
0x1D610EBF4FA7EDC5 { global: mergesort; };
0x9FB01EA70474B37E { global: mktime; };
0xD163070DBE43B7DE { global: modf; };
0x00DFE50F33D13AC5 { global: modff; };
0xB46F291B2C5D2C4B { global: modfl; };
0x0000000000000000 { global: mrand48; };
0xCDC93EE9B563E690 { global: nan; };
0x0D953E2B5C28CC62 { global: nanf; };
0x654BDE9852249214 { global: nanl; };
0x7092D3C2D2865C99 { global: nearbyint; };
0x0000000000000000 { global: nearbyintf; };
0xEA7DB77B480827DB { global: nearbyintl; };
0x87E27AD114657E79 { global: nextafter; };
0xDE6DABA3E0E2F829 { global: nextafterf; };
0x0047486F8A1568CB { global: nextafterl; };
0x0043A15804EE2C9F { global: nexttoward; };
0x41A4EB84C2944F5F { global: nexttowardf; };
0x00AF2CA7E96266E9 { global: nexttowardl; };
0xDF071820CCFC2D4A { global: nrand48; };
0x6B2DEE44E4007390 { global: opendir; };
0x10CBADC1A437E09A { global: perror; };
0x7154A4F72F1445B7 { global: posix_memalign; };
0xDCDAFD71A3478728 { global: posix_spawn; };
0x1DE878289C32A17F { global: posix_spawn_file_actions_addclose; };
0x2C6E8ED285BD6D05 { global: posix_spawn_file_actions_adddup2; };
0x4A3EF2F893B93DC3 { global: posix_spawn_file_actions_addopen; };
0x51DF026C848A4463 { global: posix_spawn_file_actions_destroy; };
0x0000000000000000 { global: posix_spawn_file_actions_init; };
0x001EAF7600C1BE92 { global: posix_spawnattr_destroy; };
0x00EC11940D00C9B8 { global: posix_spawnattr_getflags; };
0x004067D140D8BAE8 { global: posix_spawnattr_getpgroup; };
0x8DB82A6219951066 { global: posix_spawnattr_getschedparam; };
0x29461268ED6ABF46 { global: posix_spawnattr_getschedpolicy; };
0xEE90124358611F4D { global: posix_spawnattr_getsigdefault; };
0xC2FA83A1DE695598 { global: posix_spawnattr_getsigmask; };
0xE38865013ADDE3B5 { global: posix_spawnattr_init; };
0x515E26D1BCE756D5 { global: posix_spawnattr_setflags; };
0x68F0CA23727C3EA2 { global: posix_spawnattr_setpgroup; };
0x485956E24A8F814F { global: posix_spawnattr_setschedparam; };
0x7C19DEEE0728BB4B { global: posix_spawnattr_setschedpolicy; };
0x000278BA7BE4F2E9 { global: posix_spawnattr_setsigdefault; };
0xC026AF650FA6D4F0 { global: posix_spawnattr_setsigmask; };
0x2147C13B950864D7 { global: posix_spawnp; };
0xF4B0A3A56C90E597 { global: pow; };
0xD43D07D8A363B211 { global: powf; };
0xF795773C5D245040 { global: powl; };
0x85CB90803E775313 { global: printf; };
0xC3537144142A7E64 { global: printf_s; };
0xB63B84268D686E5B { global: psignal; };
0xB4B079FB84C438AD { global: putc; };
0x001D07844605AE4C { global: putc_unlocked; };
0x9B9C0DF92C19391E { global: putchar; };
0xBFDE40100CEA9BED { global: putchar_unlocked; };
0xB75CAD5E8756507D { global: putenv; };
0x610D276AFA7E6087 { global: puts; };
0x0F0716B63DED48F0 { global: putw; };
0x5192670BCD69502C { global: putwc; };
0x696F4A8460B870EA { global: putwchar; };
0x00425D215653126A { global: qsort; };
0x1BBC8E64939B57EE { global: qsort_s; };
0xA9D1850682D534A2 { global: quick_exit; };
0x72908E5D632085AD { global: rand; };
0x756DF1B2EDC48052 { global: rand_r; };
0xC35A34E5A1C94F87 { global: random; };
0x9726F2C8AB4FE787 { global: readdir; };
0x274927835C9A7373 { global: readdir_r; };
0x63B689D6EC9D3CCA { global: realloc; };
0x386C9B56E3C08406 { global: reallocalign; };
0x60C64EF428596F41 { global: reallocf; };
0x00BE1B5C2206462E { global: realpath; };
0xA6FD9EB6EE29A1CB { global: remainder; };
0x792F8C56AF8B96DC { global: remainderf; };
0x32F7677DF614DE38 { global: remainderl; };
0x3193BB157C803D4F { global: remove; };
0x5C8D180E01FCC757 { global: remquo; };
0x02AA59536363AE69 { global: remquof; };
0x170A30D32C96D272 { global: remquol; };
0x00DD020F2211838F { global: rewind; };
0x9022878BA258B663 { global: rewinddir; };
0x0968AA1D24CEE619 { global: rindex; };
0x2F11886182B02987 { global: rint; };
0xAB95B3B9CC954A43 { global: rintf; };
0x632E723226470487 { global: rintl; };
0x9E56A88CBF610ED0 { global: round; };
0x0C31C6D5AEBEDEAD { global: roundf; };
0xF05D5CB5068FD2E9 { global: roundl; };
0x1C8E0DD92E995A91 { global: scalb; };
0xAE36A4D979BEE261 { global: scalbf; };
0x00EC9A7782A4E067 { global: scalbln; };
0x4BA2C7C2F2B887C7 { global: scalblnf; };
0x345C4322EA9F9A0C { global: scalblnl; };
0x28628179572A2637 { global: scalbn; };
0xF5FB356ED7CBA14B { global: scalbnf; };
0x9777E1DD05B44ECB { global: scalbnl; };
0xED712FE8D9F39D6C { global: scanf; };
0x0007BEB03FA21E54 { global: scanf_s; };
0x4A3DDF286ECCC0C9 { global: sceLibcHeapGetAddressRanges; };
0x356B53375D1C2731 { global: sceLibcHeapGetTraceInfo; };
0x1C5B5B6D6BC13BE5 { global: sceLibcHeapMutexCalloc; };
0x8C928C929A90AFB2 { global: sceLibcHeapMutexFree; };
0xE223B3725A6FD4CD { global: sceLibcHeapSetAddressRangeCallback; };
0x33AAA26349E1939E { global: sceLibcHeapSetTraceMarker; };
0x46584954060B4AA5 { global: sceLibcHeapUnsetTraceMarker; };
0x107B05DA2F455CF3 { global: sceLibcInternalBacktraceForGame; };
0x6A5DC9CC523D310D { global: sceLibcInternalHeapErrorReportForGame; };
0x0062B2F5CBABDFCA { global: sceLibcInternalMemoryGetWakeAddr; };
0x87C8EAF5E7B88797 { global: sceLibcInternalMemoryMutexEnable; };
0x2D7AADE3B1AF6910 { global: sceLibcInternalSetMallocCallback; };
0x0096392A31C0B89A { global: sceLibcMspaceAlignedAlloc; };
0x2D8A371A1225077F { global: sceLibcMspaceCalloc; };
0x00867D6D7151EAE5 { global: sceLibcMspaceCreate; };
0x5BA4A25528820ED2 { global: sceLibcMspaceDestroy; };
0x00565699F9E5E5C6 { global: sceLibcMspaceFree; };
0xADA4608AE41FBD69 { global: sceLibcMspaceGetAddressRanges; };
0xA7351AECA128C9DC { global: sceLibcMspaceIsHeapEmpty; };
0x003898E640E20794 { global: sceLibcMspaceMalloc; };
0x99F1DD25322F86EA { global: sceLibcMspaceMallocStats; };
0x934E232D7BB7F887 { global: sceLibcMspaceMallocStatsFast; };
0x7C4A16E8126C3EDE { global: sceLibcMspaceMallocUsableSize; };
0x885D62407CF10495 { global: sceLibcMspaceMemalign; };
0xA961129725CC2371 { global: sceLibcMspacePosixMemalign; };
0x82282854766F54F1 { global: sceLibcMspaceRealloc; };
0x00A7A96B456F0C2D { global: sceLibcMspaceReallocalign; };
0xF826F019132795F5 { global: sceLibcMspaceSetMallocCallback; };
0x00959753DF89C000 { global: sceLibcPafMspaceCalloc; };
0x3DCABB5286007051 { global: sceLibcPafMspaceCheckMemoryBounds; };
0xEA175F19128779FB { global: sceLibcPafMspaceCreate; };
0x00A81E671A359A6E { global: sceLibcPafMspaceDestroy; };
0xF6632EBA15CCC2A4 { global: sceLibcPafMspaceFree; };
0x92FE2481D8ECC0DD { global: sceLibcPafMspaceGetFooterValue; };
0x86D7533A73310DB4 { global: sceLibcPafMspaceIsHeapEmpty; };
0x42E6731490F91EBC { global: sceLibcPafMspaceMalloc; };
0x98EF0D07CC212B2F { global: sceLibcPafMspaceMallocStats; };
0x3A61B760F0812C9B { global: sceLibcPafMspaceMallocStatsFast; };
0xE89718E510C0E236 { global: sceLibcPafMspaceMallocUsableSize; };
0x3CA25C1547E12ADC { global: sceLibcPafMspaceMemalign; };
0xEE1394286713EA33 { global: sceLibcPafMspacePosixMemalign; };
0xBB7D945D5AE27714 { global: sceLibcPafMspaceRealloc; };
0xE12BE512D7748F8D { global: sceLibcPafMspaceReallocalign; };
0xD059F347AAAE9BDD { global: sceLibcPafMspaceReportMemoryBlocks; };
0x01461DABADD11B75 { global: sceLibcPafMspaceTrim; };
0xDA0E70728EC00078 { global: seed48; };
0xED6A08FA555AC257 { global: seekdir; };
0x10D2DF2891194E31 { global: set_constraint_handler_s; };
0xBD931C01FB00DF52 { global: setbuf; };
0x3386186D215F27C8 { global: setenv; };
0x80D435576BDF5C31 { global: setjmp; };
0x3EDB01D50F70B050 { global: setlocale; };
0xC2842D6B8591A64D { global: setstate; };
0x40C1722E8A8DC488 { global: setvbuf; };
0x066DE4EC940C379C { global: sigblock; };
0x4ECAD2F271834289 { global: siginterrupt; };
0x4901B1642BF76989 { global: signalcontext; };
0x033DED4F2032DFCD { global: significand; };
0x2F661A1D841D987C { global: significandf; };
0x709BCE835295F2E7 { global: sigsetmask; };
0xCA1C4A3BD2D873C0 { global: sigvec; };
0x1FCC9AD87D348DB2 { global: sin; };
0x8CC07B105CAEDF46 { global: sincos; };
0xA73B55E00175F222 { global: sincosf; };
0x438AD12F7E0211E1 { global: sinf; };
0x663B51A92309C1DC { global: sinh; };
0x00D6DD49A19D2C65 { global: sinhf; };
0x95876A06F0E07875 { global: sinhl; };
0xBF182AAC9C433C7A { global: sinl; };
0x0078B743C3A9746D { global: snprintf; };
0xDC1CAD3CE42054A7 { global: snprintf_s; };
0x8DB8F6C01A220B28 { global: snwprintf_s; };
0xB5C562E528AF17B4 { global: sprintf; };
0xC44B332551A9C9BB { global: sprintf_s; };
0x31744D5A7A2C3653 { global: sqrt; };
0x0043EC54D75874C5 { global: sqrtf; };
0x44891465169D6607 { global: sqrtl; };
0x54F6C9C130A0304D { global: srand; };
0xF8A4A78EF67434C7 { global: srand48; };
0xB0F0BB5C4EA17C56 { global: srandom; };
0x6B630E65FFBE5A38 { global: srandomdev; };
0xD4F934A99406796A { global: sscanf; };
0xDB89B86786D46A86 { global: sscanf_s; };
0x6B24DEA1B7281A3F { global: statvfs; };
0x006529D7C590460A { global: stpcpy; };
0x015EA2A4235AE11C { global: strcasecmp; };
0x2ECE2DCF38629AA4 { global: strcat; };
0x2BE81C9C51492957 { global: strcat_s; };
0x00A1BE71016E259F { global: strchr; };
0x3AF6F675224E02E1 { global: strcmp; };
0x008236E66293D725 { global: strcoll; };
0x9226525C859DF6F8 { global: strcpy; };
0xE576B600234409DA { global: strcpy_s; };
0x00AB417AC92AC29A { global: strcspn; };
0x83BCF3CCB0D81B0D { global: strdup; };
0x4486BA1A75A9FA25 { global: strerror; };
0x44172CDEEBADD530 { global: strerror_r; };
0xA3EA24E98F83B606 { global: strerror_s; };
0x00836E9721319580 { global: strerrorlen_s; };
0x02FDF38D68BAE0AC { global: strftime; };
0x0727E3519B168B28 { global: strlcat; };
0x49F40865CAAFBE6B { global: strlcpy; };
0x8F856258D1C4830C { global: strlen; };
0xA57BDB0DF721BBA9 { global: strncasecmp; };
0x907838E6A3C2E9FD { global: strncat; };
0x342E0C481F814508 { global: strncat_s; };
0x69EB328EB1D55B2E { global: strncmp; };
0xEAC256896491BAA9 { global: strncpy; };
0x60DCCD909CD8A848 { global: strncpy_s; };
0x5C69EE2019849B29 { global: strndup; };
0xE6336E6F0E2F9400 { global: strnlen; };
0x0D06ED19A04A95AC { global: strnlen_s; };
0x005E7ADF6F65A157 { global: strnstr; };
0x90366FA15B2C0A04 { global: strpbrk; };
0xF720D63311057495 { global: strrchr; };
0x709586C6240F9834 { global: strsep; };
0x0000000000000000 { global: strspn; };
0xBE28B014C68D6A60 { global: strstr; };
0x00DAF0EAC0196916 { global: strtod; };
0xC4436D46E7BC7692 { global: strtof; };
0xAB93166020DFBB77 { global: strtoimax; };
0x00A15919F16F10F0 { global: strtok; };
0x7A7A8F18B7E654D5 { global: strtok_r; };
0x00BD71107510032C { global: strtok_s; };
0x9979718662CD30F8 { global: strtol; };
0x9D6F49464722464E { global: strtold; };
0x0054E060FA237007 { global: strtoll; };
0x4319921C10AE2939 { global: strtoul; };
0xE4EAACCC6A72ECC8 { global: strtoull; };
0x40DC945865E65CD7 { global: strtoumax; };
0x0080C72965FB1E66 { global: strtouq; };
0xCE880FAE4778E836 { global: strxfrm; };
0x9C9CF5E89135B713 { global: swprintf; };
0x00226E7954905E91 { global: swprintf_s; };
0x1CD9D6753E37B9EB { global: swscanf; };
0xB50368954575AB90 { global: swscanf_s; };
0x50D4B65784B4F7B3 { global: syslog; };
0x4FBBB236A3FBBD00 { global: tan; };
0x644E9134BF9E2DB9 { global: tanf; };
0x24CE0406F593F6B7 { global: tanh; };
0x480774677C0AC0B0 { global: tanhf; };
0x242987B1855CD9EA { global: tanhl; };
0x40BFB7AB8DCD7C40 { global: tanl; };
0x4590394596B0634E { global: telldir; };
0x006FB277ABB50005 { global: tgamma; };
0x07665BA95F607823 { global: tgammaf; };
0x154D37AFBE94C5A5 { global: tgammal; };
0xC0B9459301BD51C4 { global: time; };
0x003EA17E9075B659 { global: tolower; };
0x4D81388ABC529A4A { global: toupper; };
0x0004428871B09531 { global: towctrans; };
0x2772754FD7E35229 { global: towlower; };
0xD6E7F5490B23E60A { global: towupper; };
0x6B880B1ACA4F1033 { global: trunc; };
0x568F2BBD6B59C378 { global: truncf; };
0x6A9771CFA70B321F { global: truncl; };
0x81814A00CA0D11FA { global: tzset; };
0x002C53BB8E10F908 { global: ungetc; };
0x373EC9EB632F810B { global: ungetwc; };
0x09125C1FC0A73D22 { global: unsetenv; };
0xD674CA03BA4DD63C { global: utime; };
0xAA3065C367153003 { global: vasprintf; };
0x6A84E4C54F3A32BE { global: verr; };
0xECF7349CE4F0F29A { global: verrc; };
0x22D0B6853AD8BC7C { global: verrx; };
0xA43043718EAE2D20 { global: vfprintf; };
0x1A14D9B5AA1DA3BA { global: vfprintf_s; };
0x95C9164A41C306B6 { global: vfscanf; };
0x002633D7C875F975 { global: vfscanf_s; };
0x3366C6592AADEFAE { global: vfwprintf; };
0x5D7F4A5B326F45FD { global: vfwprintf_s; };
0x585E1F0668A9FB7F { global: vfwscanf; };
0x005AF9BDD084C697 { global: vfwscanf_s; };
0x18CA6FC4F156F76E { global: vprintf; };
0x61F25418D3E46CAE { global: vprintf_s; };
0x8FB264DF2777C82F { global: vscanf; };
0x7D0629714CF2DF3A { global: vscanf_s; };
0x43657E8AABE3802D { global: vsnprintf; };
0xAD64AE4D663624DD { global: vsnprintf_s; };
0xF122955E078AD706 { global: vsnwprintf_s; };
0x8DBCFD23DBE4AA49 { global: vsprintf; };
0xFAA8AD3046E44969 { global: vsprintf_s; };
0x513AE93952DCA0E0 { global: vsscanf; };
0xB5F35BA6A2F70F43 { global: vsscanf_s; };
0xBB45CEB2E3A63B37 { global: vswprintf; };
0xA03A15F6DC874DB0 { global: vswprintf_s; };
0x286A2D71ADC08D8C { global: vswscanf; };
0xDFD1C79085AB58DA { global: vswscanf_s; };
0xCF179C38E7DF3BAF { global: vsyslog; };
0x00B3AEC629E0CA3A { global: vwarn; };
0x05F02CC55BD05534 { global: vwarnc; };
0x887FA83099FC60F9 { global: vwarnx; };
0x0042E176AD9184BF { global: vwprintf; };
0x005CFAE5885E67C3 { global: vwprintf_s; };
0x40DC1D38AEC77C95 { global: vwscanf; };
0x62067AAAF147DD02 { global: vwscanf_s; };
0xDD1872DA05C38707 { global: warn; };
0x02A501759A87662E { global: warnc; };
0x68D25A6329F4523A { global: warnx; };
0xCBD3A803E3F97239 { global: wcrtomb; };
0xA00951E73DA28820 { global: wcrtomb_s; };
0x2999BC1D4217D91C { global: wcscat; };
0x32A78C695522C94F { global: wcscat_s; };
0x133CEAEFC6601CFB { global: wcschr; };
0xA4DB49744DF1E3D1 { global: wcscmp; };
0x7D5DB11C447E6CA1 { global: wcscoll; };
0x14CE4D3E72EA05CF { global: wcscpy; };
0x00E9FE5FAB1E2E70 { global: wcscpy_s; };
0xEDE36EB38D1A1AE9 { global: wcscspn; };
0x5DB557A5FE56176F { global: wcsftime; };
0x5A491ECB02C97205 { global: wcslen; };
0xA40F4DDD5220119E { global: wcsncat; };
0x5711B4F7DD2D3F71 { global: wcsncat_s; };
0x13CC02A1411B7F39 { global: wcsncmp; };
0xD27576D498D8087F { global: wcsncpy; };
0x4A59B3E07329346B { global: wcsncpy_s; };
0x2BEBFE727986A07E { global: wcsnlen_s; };
0x1F830238D17E1A9B { global: wcspbrk; };
0x8374A14A2AC3E742 { global: wcsrchr; };
0xB0E38C959A32D698 { global: wcsrtombs; };
0xEFDB36B6761023A2 { global: wcsrtombs_s; };
0xC7DBAE9967318575 { global: wcsspn; };
0x583A686E322601BE { global: wcsstr; };
0x00EDAEEC04779443 { global: wcstod; };
0xED25CDBBED0A0584 { global: wcstof; };
0x963162B1A40FC184 { global: wcstoimax; };
0xF2783358D6731495 { global: wcstok; };
0x76C5E757139115D7 { global: wcstok_s; };
0x77774CC96391C3C0 { global: wcstol; };
0x2C46D85A5F6B05CF { global: wcstold; };
0xDF89C7EEFDB1BCD4 { global: wcstoll; };
0xBFB4BB2E13F63897 { global: wcstombs; };
0x00B192EB8F1C84C7 { global: wcstombs_s; };
0xE4061C127EDAA2BA { global: wcstoul; };
0x000C06D955FBBA95 { global: wcstoull; };
0x00D5EAB9888BA41F { global: wcstoumax; };
0x56E30C6F909FA44C { global: wcsxfrm; };
0x08BED5271CE7BBA8 { global: wctob; };
0xECFC66BCE117DE87 { global: wctomb; };
0xCB75746C8AB7F0D1 { global: wctomb_s; };
0xB1ECABA88738A2F7 { global: wctrans; };
0x00FB73ED62253195 { global: wctype; };
0x7E75048C108D4555 { global: wmemchr; };
0x409E7155F2A49E2D { global: wmemcmp; };
0x7CBDCED36CA96451 { global: wmemcpy; };
0x053B2E689E85C4A3 { global: wmemcpy_s; };
0x3688FD3EC26BB1AF { global: wmemmove; };
0x0017C6FE59B61056 { global: wmemmove_s; };
0x00025F0C64987884 { global: wmemset; };
0x0038655D5D4DC4C6 { global: wprintf; };
0x144B4E25444D7B2D { global: wprintf_s; };
0x0FC241011DD18994 { global: wscanf; };
0x455ED7DC5AD67D32 { global: wscanf_s; };
0x8A7C0307012FC35F { global: xtime_get; };
0x46FB0513C8F70B7F { global: y0; };
0xFAD7CABF5BEDD104 { global: y0f; };
0xBE1F5A191DC02CFD { global: y1; };
0x824946F89F3B3EAE { global: y1f; };
0x7964ADE65B1C029A { global: yn; };
0xC1D3DA208EF6D6D6 { global: ynf; };
0x653E0E0C3D93B3DA { global: Need_sceLibcInternal; };
0x61428EE7B7336FED { global: _CTinfo; };
0x9B24F28466EE0C1C { global: _Clocale; };
0x72194DEA0E946C6A { global: _CurrentRuneLocale; };
0x007BE862B4EAC365 { global: _Dbl; };
0x956185F0D1EFF3CD { global: _DefaultRuneLocale; };
0x08E4800E69F544E8 { global: _Denorm; };
0x13849861DC16576F { global: _Eps; };
0x1E675A3A1742AFCF { global: _Erf_one; };
0x0C95F22A156B003F { global: _Erf_small; };
0x246D4C90814A9D3F { global: _FDenorm; };
0x3AF884DF2552B935 { global: _FEps; };
0x7524FE3AC4966E7A { global: _FErf_one; };
0xA84BC3B2C6B8B4E1 { global: _FErf_small; };
0x0070D1A063B25043 { global: _FGamma_big; };
0x4160936D8235E1D0 { global: _FInf; };
0x55582A2370766DF9 { global: _FNan; };
0x5F045DE08A4D12CB { global: _FRteps; };
0x5028E94DAB393B71 { global: _FSnan; };
0xDEE5B6112033B0AA { global: _FXbig; };
0x2EB5EEEC4F862C36 { global: _FZero; };
0x00A86E743163A249 { global: _Files; };
0xF9279083C735582D { global: _Flt; };
0xEC58E2B44ECA2A6E { global: _Gamma_big; };
0x69CD74DB2E918E37 { global: _Hugeval; };
0x1C886A8A035A3A7B { global: _Inf; };
0x3BBCF1C8D9D20C30 { global: _LDenorm; };
0x0F3918342848BE6C { global: _LEps; };
0x00BABAEFF6F19EEA { global: _LErf_one; };
0x307C8AF9DFBBD95D { global: _LErf_small; };
0x00B2F6455221B74F { global: _LGamma_big; };
0xDA1DE363BE733242 { global: _LInf; };
0xCEA01246F660E9DD { global: _LNan; };
0x8286C9BA7769843D { global: _LRteps; };
0x00AD0EF4B39D70AD { global: _LSnan; };
0x5926ABA1E4431394 { global: _LXbig; };
0x0001C123699043C0 { global: _LZero; };
0x00E37BA79B585073 { global: _Ldbl; };
0xAEF35646E1D8E804 { global: _Loctab; };
0xF1ED8A0533B4F0FA { global: _Nan; };
0x000AAA6D8B8C83DC { global: _PJP_CPP_Copyright; };
0x3A71D04AB3874E4B { global: _PJP_C_Copyright; };
0x4CC84B463710330F { global: _PathLocale; };
0xE6AB5CB975ADE577 { global: _Randseed; };
0x5BCB5D325B6DB77A { global: _Rteps; };
0x00BE1113A8D8AA24 { global: _SceLibcDebugOut; };
0x0084E01B4DFDC2A9 { global: _SceLibcTelemetoryOut; };
0x0028317268FC4754 { global: _Shared_ptr_flag; };
0x7E61CBAFD3F774E9 { global: _Snan; };
0x1FC029ACA799B4D8 { global: _Stderr; };
0x00D530E8226AA425 { global: _Stdin; };
0xDAC5B3858A851F81 { global: _Stdout; };
0x85B6379858BC5D8D { global: _Tls_setup__Costate; };
0x268799275E64E6F5 { global: _Tls_setup__Ctype; };
0xBA16139DAAD78593 { global: _Tls_setup__Errno; };
0x8EBE72404F5661D9 { global: _Tls_setup__Locale; };
0xED321CACFE75DC83 { global: _Tls_setup__Mbcurmax; };
0x006181BC5544605C { global: _Tls_setup__Mbstate; };
0xD07BBBAD49A1A893 { global: _Tls_setup__Times; };
0x84CEEABE6C414F1F { global: _Tls_setup__Tolotab; };
0x5252529F24B8EF78 { global: _Tls_setup__Touptab; };
0x61474F7A5DB0F1AB { global: _Tls_setup__WCostate; };
0xD9DE541FD0677D56 { global: _Tls_setup__Wcstate; };
0x458C2A0B1D215397 { global: _Tls_setup__Wctrans; };
0x29D01CF20964DBEF { global: _Tls_setup__Wctype; };
0x4127DA0A5638E5D3 { global: _Xbig; };
0x05CE28CEF1DBE0A8 { global: _ZGVNSt10moneypunctIcLb0EE2idE; };
0xCB370A4934C2CF53 { global: _ZGVNSt10moneypunctIcLb1EE2idE; };
0xB5F984BFE4D51855 { global: _ZGVNSt10moneypunctIwLb0EE2idE; };
0x92C34CF07EF62478 { global: _ZGVNSt10moneypunctIwLb1EE2idE; };
0xD86D54CE7C647205 { global: _ZGVNSt14_Error_objectsIiE14_System_objectE; };
0x0E32E9648304924B { global: _ZGVNSt14_Error_objectsIiE15_Generic_objectE; };
0x89E35E0726311600 { global: _ZGVNSt14_Error_objectsIiE16_Iostream_objectE; };
0x0D29EAEB17AC528F { global: _ZGVNSt20_Future_error_objectIiE14_Future_objectE; };
0x6A00184947ACDB7F { global: _ZGVNSt7codecvtIcc9_MbstatetE2idE; };
0x802D031A8FBB3D57 { global: _ZGVNSt7collateIcE2idE; };
0x8DA2C652BC185FCE { global: _ZGVNSt7collateIwE2idE; };
0xF28FA805775E40F9 { global: _ZGVNSt7num_getIcSt19istreambuf_iteratorIcSt11char_traitsIcEEE2idE; };
0xE450F481612EB93B { global: _ZGVNSt7num_getIwSt19istreambuf_iteratorIwSt11char_traitsIwEEE2idE; };
0x6643F4B03A472CB8 { global: _ZGVNSt7num_putIcSt19ostreambuf_iteratorIcSt11char_traitsIcEEE2idE; };
0xC28CD5904C516B1E { global: _ZGVNSt7num_putIwSt19ostreambuf_iteratorIwSt11char_traitsIwEEE2idE; };
0xE199C4D6C1325F78 { global: _ZGVNSt8messagesIcE2idE; };
0xA2A600937CE90BAE { global: _ZGVNSt8messagesIwE2idE; };
0x88765BDBCDFD7417 { global: _ZGVNSt8numpunctIcE2idE; };
0xF00AC83D70659203 { global: _ZGVNSt8numpunctIwE2idE; };
0x00CCBE9CA1793ACA { global: _ZGVNSt8time_getIcSt19istreambuf_iteratorIcSt11char_traitsIcEEE2idE; };
0x4EE2043F323059C2 { global: _ZGVNSt8time_getIwSt19istreambuf_iteratorIwSt11char_traitsIwEEE2idE; };
0x0308F99B52DF7174 { global: _ZGVNSt8time_putIcSt19ostreambuf_iteratorIcSt11char_traitsIcEEE2idE; };
0x002BE56325D09855 { global: _ZGVNSt9money_getIcSt19istreambuf_iteratorIcSt11char_traitsIcEEE2idE; };
0x1D001ADEB0A3F21A { global: _ZGVNSt9money_getIwSt19istreambuf_iteratorIwSt11char_traitsIwEEE2idE; };
0x009286B383AD8932 { global: _ZGVNSt9money_putIcSt19ostreambuf_iteratorIcSt11char_traitsIcEEE2idE; };
0x1C39C167E9A4CA38 { global: _ZGVNSt9money_putIwSt19ostreambuf_iteratorIwSt11char_traitsIwEEE2idE; };
0xD0D0FC3198AE4D1F { global: _ZGVZNSt13basic_filebufIcSt11char_traitsIcEE5_InitEP7__sFILENS2_7_InitflEE7_Stinit; };
0x3B6C3121D6CC70C4 { global: _ZGVZNSt13basic_filebufIwSt11char_traitsIwEE5_InitEP7__sFILENS2_7_InitflEE7_Stinit; };
0x785DBA60029058A0 { global: _ZNSt10moneypunctIcLb0EE2idE; };
0x51BB939CA217C829 { global: _ZNSt10moneypunctIcLb0EE4intlE; };
0x3E08931BB9D5C571 { global: _ZNSt10moneypunctIcLb1EE2idE; };
0x5E17673D7E5BA2C7 { global: _ZNSt10moneypunctIcLb1EE4intlE; };
0x9A1A3148496F1F41 { global: _ZNSt10moneypunctIwLb0EE2idE; };
0x0F482A3ECA9E65A7 { global: _ZNSt10moneypunctIwLb0EE4intlE; };
0x5D4B38D2E99C24B4 { global: _ZNSt10moneypunctIwLb1EE2idE; };
0xF2F101471D0ED5F7 { global: _ZNSt10moneypunctIwLb1EE4intlE; };
0xF829D7F990CEF2A8 { global: _ZNSt12placeholders2_1E; };
0x187B0F6112A385E1 { global: _ZNSt12placeholders2_2E; };
0x005F509886E6E919 { global: _ZNSt12placeholders2_3E; };
0x7E39F1BA4F6E72C1 { global: _ZNSt12placeholders2_4E; };
0x8F19690A512C7C94 { global: _ZNSt12placeholders2_5E; };
0x007200756D01BA8E { global: _ZNSt12placeholders2_6E; };
0x563F8A52EE648531 { global: _ZNSt12placeholders2_7E; };
0x00F5F2CC00960609 { global: _ZNSt12placeholders2_8E; };
0x465077FB7ECA25A1 { global: _ZNSt12placeholders2_9E; };
0x6FCC92CB4A478124 { global: _ZNSt12placeholders3_10E; };
0xA2BD0235194011E1 { global: _ZNSt12placeholders3_11E; };
0x04ED6BF033E19B28 { global: _ZNSt12placeholders3_12E; };
0x79E793DCD28A419D { global: _ZNSt12placeholders3_13E; };
0xB345751C9719584B { global: _ZNSt12placeholders3_14E; };
0xF783A23EE94A71AA { global: _ZNSt12placeholders3_15E; };
0x5CE11D44269C908E { global: _ZNSt12placeholders3_16E; };
0xA4FEFA12544B9BBF { global: _ZNSt12placeholders3_17E; };
0x59507DAD72C0505B { global: _ZNSt12placeholders3_18E; };
0x044ED4F90B22C500 { global: _ZNSt12placeholders3_19E; };
0x745860AEACB3AA12 { global: _ZNSt12placeholders3_20E; };
0x36D83B812B3DF4F6 { global: _ZNSt13_Num_int_base10is_boundedE; };
0xF744F45C44AB6335 { global: _ZNSt13_Num_int_base10is_integerE; };
0x5854CE6710DFA5B4 { global: _ZNSt13_Num_int_base14is_specializedE; };
0xA2782CD82E986600 { global: _ZNSt13_Num_int_base5radixE; };
0x5444FC5279DA40AA { global: _ZNSt13_Num_int_base8is_exactE; };
0xAD9E6C116C8BA9AE { global: _ZNSt13_Num_int_base9is_moduloE; };
0x762491C2CD0FA718 { global: _ZNSt13_Regex_traitsIcE6_NamesE; };
0x00C6C44DEA05310C { global: _ZNSt13_Regex_traitsIwE6_NamesE; };
0xDC2B4FDB49E4F1FB { global: _ZNSt14_Error_objectsIiE14_System_objectE; };
0x7CC7C2565D09BDF1 { global: _ZNSt14_Error_objectsIiE15_Generic_objectE; };
0x0F99BBDDF488C405 { global: _ZNSt14_Error_objectsIiE16_Iostream_objectE; };
0xCBC3D7C314D9F477 { global: _ZNSt14_Num_ldbl_base10has_denormE; };
0x1B83F0E21BFA34A7 { global: _ZNSt14_Num_ldbl_base10is_boundedE; };
0x6709F54656E2AE2A { global: _ZNSt14_Num_ldbl_base10is_integerE; };
0x33E17ED23778F98D { global: _ZNSt14_Num_ldbl_base11round_styleE; };
0x7F4EB01849A8E4F9 { global: _ZNSt14_Num_ldbl_base12has_infinityE; };
0xC5DECEF6830EFA72 { global: _ZNSt14_Num_ldbl_base13has_quiet_NaNE; };
0xF21C8E88C503DFA7 { global: _ZNSt14_Num_ldbl_base14is_specializedE; };
0x17E7A119851EDFA6 { global: _ZNSt14_Num_ldbl_base15has_denorm_lossE; };
0xD09959600A53D143 { global: _ZNSt14_Num_ldbl_base15tinyness_beforeE; };
0x79CF23782D8B30E7 { global: _ZNSt14_Num_ldbl_base17has_signaling_NaNE; };
0xEED0028DD0023813 { global: _ZNSt14_Num_ldbl_base5radixE; };
0x00EE071096266731 { global: _ZNSt14_Num_ldbl_base5trapsE; };
0xE0F2F84A42574E8B { global: _ZNSt14_Num_ldbl_base8is_exactE; };
0xB6C8819B635941FA { global: _ZNSt14_Num_ldbl_base9is_iec559E; };
0x736EE53921F13C0E { global: _ZNSt14_Num_ldbl_base9is_moduloE; };
0x2D5D8507E7F53091 { global: _ZNSt14_Num_ldbl_base9is_signedE; };
0x661B63E966A51118 { global: _ZNSt14numeric_limitsIDiE6digitsE; };
0x00AF5932FB5C8371 { global: _ZNSt14numeric_limitsIDiE8digits10E; };
0x4C431385A38BBBE7 { global: _ZNSt14numeric_limitsIDiE9is_signedE; };
0x10BFB871E023F945 { global: _ZNSt14numeric_limitsIDsE6digitsE; };
0xBC4765E44AFD4C75 { global: _ZNSt14numeric_limitsIDsE8digits10E; };
0x65A3A460D43243A8 { global: _ZNSt14numeric_limitsIDsE9is_signedE; };
0x002904C73E28F4CA { global: _ZNSt14numeric_limitsIaE6digitsE; };
0x6EDB9E17C1747D01 { global: _ZNSt14numeric_limitsIaE8digits10E; };
0x881AD2FB06E9B93D { global: _ZNSt14numeric_limitsIaE9is_signedE; };
0x00C75BD35CC18B08 { global: _ZNSt14numeric_limitsIbE6digitsE; };
0x9673AA8E75CD4F04 { global: _ZNSt14numeric_limitsIbE8digits10E; };
0xA8E91C8852078216 { global: _ZNSt14numeric_limitsIbE9is_moduloE; };
0xD268BA36D1B3D386 { global: _ZNSt14numeric_limitsIbE9is_signedE; };
0x9E5C556566EACEC5 { global: _ZNSt14numeric_limitsIcE6digitsE; };
0x5552B4C34BB10CB1 { global: _ZNSt14numeric_limitsIcE8digits10E; };
0x33E00CC63C705A50 { global: _ZNSt14numeric_limitsIcE9is_signedE; };
0x86A54A090AF4BD4F { global: _ZNSt14numeric_limitsIdE12max_digits10E; };
0x7E323675D506659B { global: _ZNSt14numeric_limitsIdE12max_exponentE; };
0x0307650E7B90E9CD { global: _ZNSt14numeric_limitsIdE12min_exponentE; };
0x5663B223358534AB { global: _ZNSt14numeric_limitsIdE14max_exponent10E; };
0xA1DCA7E8F1A0E4B6 { global: _ZNSt14numeric_limitsIdE14min_exponent10E; };
0xC50B4D89E5102D58 { global: _ZNSt14numeric_limitsIdE6digitsE; };
0x1175B6D1C277A0D0 { global: _ZNSt14numeric_limitsIdE8digits10E; };
0xBB5E9628D99050D8 { global: _ZNSt14numeric_limitsIeE12max_digits10E; };
0x6F398CD1D23CD233 { global: _ZNSt14numeric_limitsIeE12max_exponentE; };
0x11160CB9C79C370B { global: _ZNSt14numeric_limitsIeE12min_exponentE; };
0xB54A366917D6B392 { global: _ZNSt14numeric_limitsIeE14max_exponent10E; };
0xDFEE6A6562FA00FA { global: _ZNSt14numeric_limitsIeE14min_exponent10E; };
0x34B1D6707A6F32CB { global: _ZNSt14numeric_limitsIeE6digitsE; };
0x25866280FBEF07A7 { global: _ZNSt14numeric_limitsIeE8digits10E; };
0x305A9DAD6CAEF4BB { global: _ZNSt14numeric_limitsIfE12max_digits10E; };
0x002F6F50433EBE5F { global: _ZNSt14numeric_limitsIfE12max_exponentE; };
0x48F95C050E29219D { global: _ZNSt14numeric_limitsIfE12min_exponentE; };
0x47CC54A44270000F { global: _ZNSt14numeric_limitsIfE14max_exponent10E; };
0x9FE3459286B4543D { global: _ZNSt14numeric_limitsIfE14min_exponent10E; };
0x005BAAA0768C30DE { global: _ZNSt14numeric_limitsIfE6digitsE; };
0x27B77616AE8C6F49 { global: _ZNSt14numeric_limitsIfE8digits10E; };
0x4F5618AAC3E0AE7D { global: _ZNSt14numeric_limitsIhE6digitsE; };
0xB938892EAE216B21 { global: _ZNSt14numeric_limitsIhE8digits10E; };
0xA3459EC538FCDA95 { global: _ZNSt14numeric_limitsIhE9is_signedE; };
0x66F6A1C563CB2A6D { global: _ZNSt14numeric_limitsIiE6digitsE; };
0x6908E54E0BAF14CC { global: _ZNSt14numeric_limitsIiE8digits10E; };
0x1924F761E98D643F { global: _ZNSt14numeric_limitsIiE9is_signedE; };
0x008E9937D65651E8 { global: _ZNSt14numeric_limitsIjE6digitsE; };
0x72C34805F17A7322 { global: _ZNSt14numeric_limitsIjE8digits10E; };
0x3FD5CFE54EC07D7B { global: _ZNSt14numeric_limitsIjE9is_signedE; };
0xDF59493A90F71869 { global: _ZNSt14numeric_limitsIlE6digitsE; };
0xE0C74656AAEC97BB { global: _ZNSt14numeric_limitsIlE8digits10E; };
0xE2595D6B663E43EE { global: _ZNSt14numeric_limitsIlE9is_signedE; };
0x00EC06878F53BC80 { global: _ZNSt14numeric_limitsImE6digitsE; };
0x87D4723F7477D072 { global: _ZNSt14numeric_limitsImE8digits10E; };
0x157ACAD43880A2C4 { global: _ZNSt14numeric_limitsImE9is_signedE; };
0x40EE90FBA58F832D { global: _ZNSt14numeric_limitsIsE6digitsE; };
0x916E4AED1E2B5F2F { global: _ZNSt14numeric_limitsIsE8digits10E; };
0x002F49CCCE1CDAC6 { global: _ZNSt14numeric_limitsIsE9is_signedE; };
0xE2BF4FF1FA1AE904 { global: _ZNSt14numeric_limitsItE6digitsE; };
0x390A2B6E633E35B0 { global: _ZNSt14numeric_limitsItE8digits10E; };
0xBF2A90A5623E3B8F { global: _ZNSt14numeric_limitsItE9is_signedE; };
0x4E57E09FD4C85A40 { global: _ZNSt14numeric_limitsIwE6digitsE; };
0x99D731E8A7112241 { global: _ZNSt14numeric_limitsIwE8digits10E; };
0x61569CAC86B82F47 { global: _ZNSt14numeric_limitsIwE9is_signedE; };
0x2CDD9B0BA42D1901 { global: _ZNSt14numeric_limitsIxE6digitsE; };
0x3B07297A94A4E658 { global: _ZNSt14numeric_limitsIxE8digits10E; };
0x9A6AD2CE4583AE00 { global: _ZNSt14numeric_limitsIxE9is_signedE; };
0xBFB5C7B761F05152 { global: _ZNSt14numeric_limitsIyE6digitsE; };
0x12E6E3FB883C7560 { global: _ZNSt14numeric_limitsIyE8digits10E; };
0x176B900CE73B7CCA { global: _ZNSt14numeric_limitsIyE9is_signedE; };
0x00A963AB24D3A584 { global: _ZNSt15_Num_float_base10has_denormE; };
0x005DB0C0D8C12C4B { global: _ZNSt15_Num_float_base10is_boundedE; };
0x9B1BF6E0EAA6A741 { global: _ZNSt15_Num_float_base10is_integerE; };
0xF40717E10938EFEA { global: _ZNSt15_Num_float_base11round_styleE; };
0x0000000000000000 { global: _ZNSt15_Num_float_base12has_infinityE; };
0x9F1762A108031761 { global: _ZNSt15_Num_float_base13has_quiet_NaNE; };
0x374DF064BAF646B1 { global: _ZNSt15_Num_float_base14is_specializedE; };
0xAE1260E6D8ECF374 { global: _ZNSt15_Num_float_base15has_denorm_lossE; };
0x133B9A8632B37864 { global: _ZNSt15_Num_float_base15tinyness_beforeE; };
0xB8C306F1CB8936BF { global: _ZNSt15_Num_float_base17has_signaling_NaNE; };
0xD4A9E0B0CEEDAE9B { global: _ZNSt15_Num_float_base5radixE; };
0x0098C3EEE23C7DA0 { global: _ZNSt15_Num_float_base5trapsE; };
0x279400D1978B9A1B { global: _ZNSt15_Num_float_base8is_exactE; };
0x2703D4FBAF93DB43 { global: _ZNSt15_Num_float_base9is_iec559E; };
0x1D4DF2CC23F3DC64 { global: _ZNSt15_Num_float_base9is_moduloE; };
0x4BB9248003C6C4B4 { global: _ZNSt15_Num_float_base9is_signedE; };
0x414794831CBB3D30 { global: _ZNSt20_Future_error_objectIiE14_Future_objectE; };
0xAD7E7C682402312E { global: _ZNSt5ctypeIcE10table_sizeE; };
0x0AFFB30B812318C0 { global: _ZNSt5ctypeIcE2idE; };
0x566AAC4BA6AE273A { global: _ZNSt5ctypeIwE2idE; };
0xD16635487EDEA08B { global: _ZNSt6_Winit9_Init_cntE; };
0xCFCDDC68E9FDE1F3 { global: _ZNSt6chrono12steady_clock12is_monotonicE; };
0xBC7CBE6B880B05FB { global: _ZNSt6chrono12steady_clock9is_steadyE; };
0x8C25F708F21507C2 { global: _ZNSt6chrono12system_clock12is_monotonicE; };
0x00F3C132504A015C { global: _ZNSt6chrono12system_clock9is_steadyE; };
0x1F87DCA503A9734F { global: _ZNSt6locale2id7_Id_cntE; };
0xF4517E4F95E4B3D1 { global: _ZNSt6locale7_Locimp8_ClocptrE; };
0xBB6300B5AE524BCE { global: _ZNSt7codecvtIDic9_MbstatetE2idE; };
0xC4CE6B7B9F26C63F { global: _ZNSt7codecvtIDsc9_MbstatetE2idE; };
0x79515866760D0E8D { global: _ZNSt7codecvtIcc9_MbstatetE2idE; };
0x1636423E62B449B0 { global: _ZNSt7codecvtIwc9_MbstatetE2idE; };
0xEDBAD17C75550252 { global: _ZNSt7collateIcE2idE; };
0x008AB1A8D72689BC { global: _ZNSt7collateIwE2idE; };
0x0000000000000000 { global: _ZNSt7num_getIcSt19istreambuf_iteratorIcSt11char_traitsIcEEE2idE; };
0x3450211CAC8C9C28 { global: _ZNSt7num_getIwSt19istreambuf_iteratorIwSt11char_traitsIwEEE2idE; };
0x135E265BCA55A681 { global: _ZNSt7num_putIcSt19ostreambuf_iteratorIcSt11char_traitsIcEEE2idE; };
0x908987108599E7C4 { global: _ZNSt7num_putIwSt19ostreambuf_iteratorIwSt11char_traitsIwEEE2idE; };
0x4196F4ECA2B04D4D { global: _ZNSt8ios_base4Init9_Init_cntE; };
0xF2D2FAC89697D51A { global: _ZNSt8ios_base5_SyncE; };
0xE0490F298CCE8CF7 { global: _ZNSt8ios_base6_IndexE; };
0x00940F8F7E2652E4 { global: _ZNSt8messagesIcE2idE; };
0x009F563AA4647C01 { global: _ZNSt8messagesIwE2idE; };
0xF625EDC2F1951512 { global: _ZNSt8numpunctIcE2idE; };
0x5D9362DD7B5B590E { global: _ZNSt8numpunctIwE2idE; };
0x6B9E2DF3E93B2A96 { global: _ZNSt8time_getIcSt19istreambuf_iteratorIcSt11char_traitsIcEEE2idE; };
0x435EDE6AF7CEC366 { global: _ZNSt8time_getIwSt19istreambuf_iteratorIwSt11char_traitsIwEEE2idE; };
0x05A98EB0D6D4727E { global: _ZNSt8time_putIcSt19ostreambuf_iteratorIcSt11char_traitsIcEEE2idE; };
0x2458A38B60E9BD74 { global: _ZNSt8time_putIwSt19ostreambuf_iteratorIwSt11char_traitsIwEEE2idE; };
0x7031D18125D876A0 { global: _ZNSt9_Num_base10has_denormE; };
0xBFD1C7B1A6B8DAA1 { global: _ZNSt9_Num_base10is_boundedE; };
0x12048861EDC862CA { global: _ZNSt9_Num_base10is_integerE; };
0x5D78867186B9C2D8 { global: _ZNSt9_Num_base11round_styleE; };
0xF7CC3E3FE1AE14C5 { global: _ZNSt9_Num_base12has_infinityE; };
0xA9E039A9483DC419 { global: _ZNSt9_Num_base12max_digits10E; };
0x1388165E5E95D89D { global: _ZNSt9_Num_base12max_exponentE; };
0x2AA75C96C61DDB8C { global: _ZNSt9_Num_base12min_exponentE; };
0x805E5A18D9B35928 { global: _ZNSt9_Num_base13has_quiet_NaNE; };
0x44258A6E411A0C05 { global: _ZNSt9_Num_base14is_specializedE; };
0x0E5E21C4BE7D605E { global: _ZNSt9_Num_base14max_exponent10E; };
0xCC11C642C37961FC { global: _ZNSt9_Num_base14min_exponent10E; };
0xF7A060F21D3DC3EA { global: _ZNSt9_Num_base15has_denorm_lossE; };
0x53415DB4E52350F8 { global: _ZNSt9_Num_base15tinyness_beforeE; };
0x7D27691A861F62CF { global: _ZNSt9_Num_base17has_signaling_NaNE; };
0x5DBF4584CCAC107A { global: _ZNSt9_Num_base5radixE; };
0xB2E681C7394BD29D { global: _ZNSt9_Num_base5trapsE; };
0x7A3073F1AF130965 { global: _ZNSt9_Num_base6digitsE; };
0x0030A45A3E3F6D41 { global: _ZNSt9_Num_base8digits10E; };
0x6D440B13AB84BB5D { global: _ZNSt9_Num_base8is_exactE; };
0xD19763B005AD6C6F { global: _ZNSt9_Num_base9is_iec559E; };
0xA8EE0C2C6B35A39F { global: _ZNSt9_Num_base9is_moduloE; };
0xE43CEDB42177E7A5 { global: _ZNSt9_Num_base9is_signedE; };
0x4EC19EC1D5BD46DA { global: _ZNSt9money_getIcSt19istreambuf_iteratorIcSt11char_traitsIcEEE2idE; };
0x76997243AFB16AD8 { global: _ZNSt9money_getIwSt19istreambuf_iteratorIwSt11char_traitsIwEEE2idE; };
0x85FD8B8DA7F5F45B { global: _ZNSt9money_putIcSt19ostreambuf_iteratorIcSt11char_traitsIcEEE2idE; };
0xA737C5A9A4CCB057 { global: _ZNSt9money_putIwSt19ostreambuf_iteratorIwSt11char_traitsIwEEE2idE; };
0x6667AE860E34C8D2 { global: _ZSt10adopt_lock; };
0x9A147722E7C0EDF1 { global: _ZSt10defer_lock; };
0x905610E1DEA3565B { global: _ZSt11try_to_lock; };
0x00C9B9F7E6423E07 { global: _ZSt13_Cl_charnames; };
0x4FECD5C6955A693A { global: _ZSt14_Cl_wcharnames; };
0xBB4C8DEADCC1A2BB { global: _ZSt14_Raise_handler; };
0x56853099EDBCCB8C { global: _ZSt18_String_cpp_unused; };
0x00428A35EF9220FA { global: _ZSt21_sceLibcClassicLocale; };
0xD9654169274621DB { global: _ZSt3cin; };
0xC2247EAC871B9E57 { global: _ZSt4_Fpz; };
0x4D57DB7F5B17B740 { global: _ZSt4cerr; };
0x8D2AAE58DEE2EE57 { global: _ZSt4clog; };
0xE4F7EA5016907F88 { global: _ZSt4cout; };
0xD9B012874AC47972 { global: _ZSt4wcin; };
0x0AF2771D43E53086 { global: _ZSt5wcerr; };
0x6B0AF50365405594 { global: _ZSt5wclog; };
0x00758448BCED235C { global: _ZSt5wcout; };
0x92BE6987EC1502D5 { global: _ZSt6ignore; };
0x150F4D15B0476F96 { global: _ZSt7_BADOFF; };
0x34BC09DEAFBAE1B6 { global: _ZSt7nothrow; };
0x96D44B01601E49A3 { global: _ZTIDh; };
0xED35B8520263C09F { global: _ZTIDi; };
0x48AD12CB26BEB1CB { global: _ZTIDn; };
0xAE458E69B924A55A { global: _ZTIDs; };
0x87511EC20CE8C1EB { global: _ZTIN10__cxxabiv116__enum_type_infoE; };
0x783FA60BA6E23052 { global: _ZTIN10__cxxabiv117__array_type_infoE; };
0x11E3AD1F1A1492F3 { global: _ZTIN10__cxxabiv117__class_type_infoE; };
0x75206C85367C25C0 { global: _ZTIN10__cxxabiv117__pbase_type_infoE; };
0x62096B71068D7DDB { global: _ZTIN10__cxxabiv119__pointer_type_infoE; };
0x0D9859C189090C21 { global: _ZTIN10__cxxabiv120__function_type_infoE; };
0x376555FAF9C4625C { global: _ZTIN10__cxxabiv120__si_class_type_infoE; };
0x8232D116128230D1 { global: _ZTIN10__cxxabiv121__vmi_class_type_infoE; };
0x747C346008F2215E { global: _ZTIN10__cxxabiv123__fundamental_type_infoE; };
0x00EED4E9CCCB4FCD { global: _ZTIN10__cxxabiv129__pointer_to_member_type_infoE; };
0xC9998738A202BB18 { global: _ZTIN6Dinkum7threads10lock_errorE; };
0xA9C6889270D02F01 { global: _ZTIN6Dinkum7threads21thread_resource_errorE; };
0x00B09514D995B2C5 { global: _ZTINSt6locale5facetE; };
0x00F1673EB7704216 { global: _ZTINSt6locale7_LocimpE; };
0xB010938C593B1A2E { global: _ZTINSt8ios_base7failureE; };
0xECE3B4B8225620B4 { global: _ZTIPDh; };
0x0CE0423D6E832F7C { global: _ZTIPDi; };
0x42F58E94BCAE436A { global: _ZTIPDn; };
0x3A46316DD92BBFAE { global: _ZTIPDs; };
0x3550815A8997A5CC { global: _ZTIPKDh; };
0xE74683946545B792 { global: _ZTIPKDi; };
0x96247E42485E8C39 { global: _ZTIPKDn; };
0x009337E3612916EF { global: _ZTIPKDs; };
0x325D73DDD60454F3 { global: _ZTIPKa; };
0x595F78CCAAB08316 { global: _ZTIPKb; };
0x238CB7DC039A9A7B { global: _ZTIPKc; };
0xD06DFA4808985214 { global: _ZTIPKd; };
0xEEE5FA22C5D6C1A9 { global: _ZTIPKe; };
0xD8F5D950A8E89400 { global: _ZTIPKf; };
0x44ABF281D43319A6 { global: _ZTIPKh; };
0xB155243B44D3A4CF { global: _ZTIPKi; };
0xE3385CD71352227A { global: _ZTIPKj; };
0x1ABFA28798A980D9 { global: _ZTIPKl; };
0xD1C2C561DAF50067 { global: _ZTIPKm; };
0xD17C6D89AAFC09E8 { global: _ZTIPKn; };
0x0086CB6D9086CBD6 { global: _ZTIPKo; };
0xCEA3864E84F6747F { global: _ZTIPKs; };
0x598EFAD794C7A8A3 { global: _ZTIPKt; };
0xD20FB308667B7604 { global: _ZTIPKv; };
0x8DFA9374A4C66C12 { global: _ZTIPKw; };
0xB0ECF68F52F1978F { global: _ZTIPKx; };
0xA93830F9FE782B7E { global: _ZTIPKy; };
0x264F8B819CC2B22F { global: _ZTIPa; };
0xFAAB28DA75704338 { global: _ZTIPb; };
0x3358E678DB1654AF { global: _ZTIPc; };
0xDE8D0F0D59E7D6A0 { global: _ZTIPd; };
0xF7AC5D4856E247B4 { global: _ZTIPe; };
0xD3515280D2B5C300 { global: _ZTIPf; };
0x00A2D6B7F9CA3826 { global: _ZTIPh; };
0x62CB5F7056E1C2F4 { global: _ZTIPi; };
0x0D0F660A19F49E71 { global: _ZTIPj; };
0xD7EE688E8E49DB15 { global: _ZTIPl; };
0x48F896DCD4CEF08D { global: _ZTIPm; };
0xCD4C26B4DB890012 { global: _ZTIPn; };
0x03D3DF223402394C { global: _ZTIPo; };
0x9EAA404705999A32 { global: _ZTIPs; };
0x2945B6D97895C6F4 { global: _ZTIPt; };
0x003893E7611D5BA3 { global: _ZTIPv; };
0xEE08F405750FDDD7 { global: _ZTIPw; };
0xF68A5DD6E7300EA2 { global: _ZTIPx; };
0x6BD28C91F5D752C1 { global: _ZTIPy; };
0x53508154C0F8D870 { global: _ZTISi; };
0x88B49ABD3628C71D { global: _ZTISo; };
0x1F46AA936E56E812 { global: _ZTISt10bad_typeid; };
0xD86591AE04FCA36D { global: _ZTISt10ctype_base; };
0x201B73B308185370 { global: _ZTISt10money_base; };
0xD9EF7A324497A375 { global: _ZTISt10moneypunctIcLb0EE; };
0x2ACD852102767837 { global: _ZTISt10moneypunctIcLb1EE; };
0x1273237D194EE5FD { global: _ZTISt10moneypunctIwLb0EE; };
0x8016674C5324E8DD { global: _ZTISt10moneypunctIwLb1EE; };
0x9FB883E6BF7EE04A { global: _ZTISt11_Facet_base; };
0xC7C2C74AF97937A2 { global: _ZTISt11logic_error; };
0x0B421869A5520B5C { global: _ZTISt11range_error; };
0x0000000000000000 { global: _ZTISt11regex_error; };
0x5ED3FD28AC322BD4 { global: _ZTISt12bad_weak_ptr; };
0x7432238FC341C4D0 { global: _ZTISt12codecvt_base; };
0xE4121BCC8B83C534 { global: _ZTISt12domain_error; };
0x0C263D7282D07152 { global: _ZTISt12future_error; };
0x731AB382F1A6D462 { global: _ZTISt12length_error; };
0x74A8E13547FD1417 { global: _ZTISt12out_of_range; };
0x78372230BFA6A19B { global: _ZTISt12system_error; };
0x67B35687C8C3F8DC { global: _ZTISt13bad_exception; };
0x4933408F5A31B699 { global: _ZTISt13basic_filebufIcSt11char_traitsIcEE; };
0xDFB08CCF36DB1E7F { global: _ZTISt13basic_filebufIwSt11char_traitsIwEE; };
0x8970A11F81257FB3 { global: _ZTISt13basic_istreamIwSt11char_traitsIwEE; };
0x002DC9751908BBB6 { global: _ZTISt13basic_ostreamIwSt11char_traitsIwEE; };
0x59B073E0E6A6DF03 { global: _ZTISt13messages_base; };
0x6CB3E7D607EA496F { global: _ZTISt13runtime_error; };
0x71BBD6DB4C4F8327 { global: _ZTISt14error_category; };
0x96DD262E13708ECD { global: _ZTISt14overflow_error; };
0xCA65DF8B0BF9F59D { global: _ZTISt15basic_streambufIcSt11char_traitsIcEE; };
0x9AE20EC8307E0CFF { global: _ZTISt15basic_streambufIwSt11char_traitsIwEE; };
0xA0D44007466CDBED { global: _ZTISt15underflow_error; };
0x5D9CD6B74CA059DC { global: _ZTISt16invalid_argument; };
0x16D3C531D89446E3 { global: _ZTISt16nested_exception; };
0x737DC60068DDEC8B { global: _ZTISt17bad_function_call; };
0xF2B77916F38593EC { global: _ZTISt18bad_variant_access; };
0x95B2C400DF98F622 { global: _ZTISt20bad_array_new_length; };
0xDDA64DDF6513AAA9 { global: _ZTISt22_Future_error_category; };
0x40BA8CD6BF673E8C { global: _ZTISt22_System_error_category; };
0xF8B7B456C15BF661 { global: _ZTISt23_Generic_error_category; };
0x142BAF971B20834C { global: _ZTISt24_Iostream_error_category; };
0x410B274366D691D3 { global: _ZTISt4_Pad; };
0xB08BCAE71979A73C { global: _ZTISt5_IosbIiE; };
0x819BCD1A342C99FF { global: _ZTISt5ctypeIcE; };
0x163ED54C5CE52379 { global: _ZTISt5ctypeIwE; };
0xC1E00B4F0D2E7AC7 { global: _ZTISt7_MpunctIcE; };
0x0DA61840173E498F { global: _ZTISt7_MpunctIwE; };
0xF93B5417300BA037 { global: _ZTISt7codecvtIDic9_MbstatetE; };
0xBF559E6C7B486B6E { global: _ZTISt7codecvtIDsc9_MbstatetE; };
0x0ACDC3040091498F { global: _ZTISt7codecvtIcc9_MbstatetE; };
0x85B5391CE4F2D473 { global: _ZTISt7codecvtIwc9_MbstatetE; };
0x7EF8186C11215E77 { global: _ZTISt7collateIcE; };
0xA698448679EE5CA0 { global: _ZTISt7collateIwE; };
0xE9D74E14F0EFB82A { global: _ZTISt7num_getIcSt19istreambuf_iteratorIcSt11char_traitsIcEEE; };
0x0074EECCC483DFB3 { global: _ZTISt7num_getIwSt19istreambuf_iteratorIwSt11char_traitsIwEEE; };
0x45896F7D0BE73B3A { global: _ZTISt7num_putIcSt19ostreambuf_iteratorIcSt11char_traitsIcEEE; };
0x0B7B00C76689CB71 { global: _ZTISt7num_putIwSt19ostreambuf_iteratorIwSt11char_traitsIwEEE; };
0x00A8E0E4B13904D3 { global: _ZTISt8bad_cast; };
0x000490A05BD3B12C { global: _ZTISt8ios_base; };
0x00505B0A0F57DDD7 { global: _ZTISt8messagesIcE; };
0xD34ECF8EB0426943 { global: _ZTISt8messagesIwE; };
0x75D2CD053F64B362 { global: _ZTISt8numpunctIcE; };
0x0364D344C01EE92C { global: _ZTISt8numpunctIwE; };
0x0B88F9EE2403E08F { global: _ZTISt8time_getIcSt19istreambuf_iteratorIcSt11char_traitsIcEEE; };
0xA18962302A8D6108 { global: _ZTISt8time_getIwSt19istreambuf_iteratorIwSt11char_traitsIwEEE; };
0xDF7B7EB6FA2CC422 { global: _ZTISt8time_putIcSt19ostreambuf_iteratorIcSt11char_traitsIcEEE; };
0x87D0BE27AF16AE21 { global: _ZTISt8time_putIwSt19ostreambuf_iteratorIwSt11char_traitsIwEEE; };
0x0F01F781D6D87D9A { global: _ZTISt9bad_alloc; };
0xEDFE0D976552D20C { global: _ZTISt9basic_iosIcSt11char_traitsIcEE; };
0x4635A1763D33B53B { global: _ZTISt9basic_iosIwSt11char_traitsIwEE; };
0x9F6931F8E985522B { global: _ZTISt9exception; };
0xA0D0279F970EC5FB { global: _ZTISt9money_getIcSt19istreambuf_iteratorIcSt11char_traitsIcEEE; };
0x40D008584901A1C6 { global: _ZTISt9money_getIwSt19istreambuf_iteratorIwSt11char_traitsIwEEE; };
0x841796EC585E76C6 { global: _ZTISt9money_putIcSt19ostreambuf_iteratorIcSt11char_traitsIcEEE; };
0xEC3CCCD9F978EA05 { global: _ZTISt9money_putIwSt19ostreambuf_iteratorIwSt11char_traitsIwEEE; };
0x09572699FF152F8D { global: _ZTISt9time_base; };
0xC57EACFB3D2AEA8A { global: _ZTISt9type_info; };
0x5CEF6284064205C6 { global: _ZTIa; };
0x9C4B93912400405C { global: _ZTIb; };
0xB267A58F395E1914 { global: _ZTIc; };
0x899AC27C546C1376 { global: _ZTId; };
0x365800D9F32DC65E { global: _ZTIe; };
0x0000000000000000 { global: _ZTIf; };
0x0081F50F0F81F39D { global: _ZTIh; };
0x4ADE1AA6070135FA { global: _ZTIi; };
0x329893BF7304AC44 { global: _ZTIj; };
0x6F925212E007B83A { global: _ZTIl; };
0x0E8192DB5BA021F2 { global: _ZTIm; };
0xD8410343AB876367 { global: _ZTIn; };
0x4A7DD3081589E70A { global: _ZTIo; };
0x8FDEC28CA24DB502 { global: _ZTIs; };
0x41DEB351D461AE1B { global: _ZTIt; };
0x0026B5278C93C24E { global: _ZTIv; };
0xA94C47F836A67EDE { global: _ZTIw; };
0xF088F1DD2AF29E1D { global: _ZTIx; };
0x2810559ADF1377B7 { global: _ZTIy; };
0x0E0873163CCBA9A1 { global: _ZTSDi; };
0x154BE75720838638 { global: _ZTSDn; };
0x67BFAC8810BAF74C { global: _ZTSDs; };
0x6AEF98C4AC1E8503 { global: _ZTSN10__cxxabiv116__enum_type_infoE; };
0xE81613DBA085879F { global: _ZTSN10__cxxabiv117__array_type_infoE; };
0xF15B35023366DA61 { global: _ZTSN10__cxxabiv117__class_type_infoE; };
0x6CF50C35906A46A4 { global: _ZTSN10__cxxabiv117__pbase_type_infoE; };
0x5157EDDFEADCD3AA { global: _ZTSN10__cxxabiv119__pointer_type_infoE; };
0xE195E5672EE24562 { global: _ZTSN10__cxxabiv120__function_type_infoE; };
0x01096A3BCEB466D7 { global: _ZTSN10__cxxabiv120__si_class_type_infoE; };
0x23546ED9F6490E81 { global: _ZTSN10__cxxabiv121__vmi_class_type_infoE; };
0xE9662B6600328EE1 { global: _ZTSN10__cxxabiv123__fundamental_type_infoE; };
0x2BEC34A1F092B006 { global: _ZTSN10__cxxabiv129__pointer_to_member_type_infoE; };
0x00C9B6C888B00B77 { global: _ZTSN6Dinkum7threads10lock_errorE; };
0x8661C7E83B0B5A00 { global: _ZTSN6Dinkum7threads21thread_resource_errorE; };
0x4550E8A0FE60678B { global: _ZTSNSt6locale5facetE; };
0x2634DCE120AE20B1 { global: _ZTSNSt6locale7_LocimpE; };
0x000B737E9844258B { global: _ZTSNSt8ios_base7failureE; };
0x4D231CF2F82DBC72 { global: _ZTSPDi; };
0x723FA07BC60B53BB { global: _ZTSPDn; };
0x9900A6E4D9893918 { global: _ZTSPDs; };
0x945280F1E314E4F0 { global: _ZTSPKDi; };
0xDAF7B236C5C566EC { global: _ZTSPKDn; };
0xA90E1CE76199958C { global: _ZTSPKDs; };
0x75289FACC74F550E { global: _ZTSPKa; };
0xA92888AE6832D43F { global: _ZTSPKb; };
0xC26F502A8CC533EB { global: _ZTSPKc; };
0x00EDCEED854B22D5 { global: _ZTSPKd; };
0x00F027BA3B404AA4 { global: _ZTSPKe; };
0x7A69D1CB74CDC459 { global: _ZTSPKf; };
0xB610D35D38A44A67 { global: _ZTSPKh; };
0xDC577EF0F93A7E01 { global: _ZTSPKi; };
0xE9ACE8BC3823C6DD { global: _ZTSPKj; };
0x41D3E4F5C6C9ACE6 { global: _ZTSPKl; };
0x00111F001681437C { global: _ZTSPKm; };
0xE6B0F6942A38EBCF { global: _ZTSPKs; };
0x896321A074BC82A9 { global: _ZTSPKt; };
0x0000000000000000 { global: _ZTSPKv; };
0x0087AE2EEC6BB74C { global: _ZTSPKw; };
0xDD31E74BBBF40FE3 { global: _ZTSPKx; };
0x87EC5011367EE98A { global: _ZTSPKy; };
0xA74ED8BDD8E3A28E { global: _ZTSPa; };
0x89C932BE3B4C2E6D { global: _ZTSPb; };
0x008C9B683C5AF118 { global: _ZTSPc; };
0x748C46D0BD5EB002 { global: _ZTSPd; };
0x37CE2A4BAAC9B862 { global: _ZTSPe; };
0x0CDD310CB4570F66 { global: _ZTSPf; };
0x1C75592C79827C8E { global: _ZTSPh; };
0x83CA6103776E466F { global: _ZTSPi; };
0x6C46E3CBAC9C796A { global: _ZTSPj; };
0xE9C7DC4533C3DB35 { global: _ZTSPl; };
0x397933180F56A95C { global: _ZTSPm; };
0xE977106183B660C6 { global: _ZTSPs; };
0xF0E4B2D0C310EDE2 { global: _ZTSPt; };
0xB356F64910734806 { global: _ZTSPv; };
0x0000000000000000 { global: _ZTSPw; };
0x00A5CE0BAA8B3182 { global: _ZTSPx; };
0x5492FD5BE9CEBF55 { global: _ZTSPy; };
0xE3A85A0CF455B4FA { global: _ZTSSi; };
0x4602639A5B91F900 { global: _ZTSSo; };
0x00B71C96F4F85B74 { global: _ZTSSt10bad_typeid; };
0x89DB1AA66619E3DC { global: _ZTSSt10ctype_base; };
0x57139BA34BA269FA { global: _ZTSSt10money_base; };
0x87E881124139D19B { global: _ZTSSt10moneypunctIcLb0EE; };
0xA380E266A5C877DD { global: _ZTSSt10moneypunctIcLb1EE; };
0x33119C95632D9788 { global: _ZTSSt10moneypunctIwLb0EE; };
0x27E863881ADE66BE { global: _ZTSSt10moneypunctIwLb1EE; };
0x001406A1018F3EBD { global: _ZTSSt11_Facet_base; };
0x54D1D7072A35CAE6 { global: _ZTSSt11logic_error; };
0x009ACC7081400FC9 { global: _ZTSSt11range_error; };
0x506E8725E1F918D2 { global: _ZTSSt11regex_error; };
0x3FB97DFB204BE555 { global: _ZTSSt12bad_weak_ptr; };
0x003572ACC53C7BE8 { global: _ZTSSt12codecvt_base; };
0xDAE7756C5791D21F { global: _ZTSSt12domain_error; };
0x61E04FD118DAEEF7 { global: _ZTSSt12future_error; };
0xCC485C4061223E29 { global: _ZTSSt12length_error; };
0x78D5B98EC1714BA9 { global: _ZTSSt12out_of_range; };
0x5D1C6EC2F37EFB6C { global: _ZTSSt12system_error; };
0x1BCCFBAF3D7BC583 { global: _ZTSSt13bad_exception; };
0x59859FFAB26E0D55 { global: _ZTSSt13basic_filebufIcSt11char_traitsIcEE; };
0x72856480BCCDB5AC { global: _ZTSSt13basic_filebufIwSt11char_traitsIwEE; };
0xD18B37AEFD2DC3B6 { global: _ZTSSt13basic_istreamIwSt11char_traitsIwEE; };
0x47BD8D099A8C5F9F { global: _ZTSSt13basic_ostreamIwSt11char_traitsIwEE; };
0x37410792E901CFA4 { global: _ZTSSt13messages_base; };
0x097DD60BCA9E9091 { global: _ZTSSt13runtime_error; };
0xBB9CE9DF25D6E700 { global: _ZTSSt14error_category; };
0x8B2D653E3003454B { global: _ZTSSt14overflow_error; };
0x21F594901ED29E47 { global: _ZTSSt15basic_streambufIcSt11char_traitsIcEE; };
0xAA296853B0FC3013 { global: _ZTSSt15basic_streambufIwSt11char_traitsIwEE; };
0x51E6B591F449ECE7 { global: _ZTSSt15underflow_error; };
0x289BADC2B554154A { global: _ZTSSt16invalid_argument; };
0x4BC929D397CC0AA5 { global: _ZTSSt16nested_exception; };
0xAA5EA1CFB64E653B { global: _ZTSSt17bad_function_call; };
0x39B74192B67294E8 { global: _ZTSSt18bad_variant_access; };
0x841BEA4900F9C8D9 { global: _ZTSSt20bad_array_new_length; };
0xA2EA36A1B0C4EB25 { global: _ZTSSt22_Future_error_category; };
0x8B02149DDA54E592 { global: _ZTSSt22_System_error_category; };
0xF3C16B7BEC1FB93D { global: _ZTSSt23_Generic_error_category; };
0x22D9A23659175644 { global: _ZTSSt24_Iostream_error_category; };
0xA91E8656AD48A655 { global: _ZTSSt4_Pad; };
0xB8EE98C689D09092 { global: _ZTSSt5_IosbIiE; };
0x8D443E16538C1079 { global: _ZTSSt5ctypeIcE; };
0xD635093BE4D99B99 { global: _ZTSSt5ctypeIwE; };
0x2DF318F47E9DE662 { global: _ZTSSt7_MpunctIcE; };
0x9A1F49AE8D2D7238 { global: _ZTSSt7_MpunctIwE; };
0x4EDDD94A9F570F81 { global: _ZTSSt7codecvtIDic9_MbstatetE; };
0xF572F74E5831EA57 { global: _ZTSSt7codecvtIDsc9_MbstatetE; };
0xADFD017C3406D4A5 { global: _ZTSSt7codecvtIcc9_MbstatetE; };
0x62B60EE5B4C83EA2 { global: _ZTSSt7codecvtIwc9_MbstatetE; };
0xC049721343A6A11C { global: _ZTSSt7collateIcE; };
0x05D7CFC6694CF5BB { global: _ZTSSt7collateIwE; };
0xE4374974F7970871 { global: _ZTSSt7num_getIcSt19istreambuf_iteratorIcSt11char_traitsIcEEE; };
0x5D8AAB704E1C54C3 { global: _ZTSSt7num_getIwSt19istreambuf_iteratorIwSt11char_traitsIwEEE; };
0x07DAE7E9E28D3C98 { global: _ZTSSt7num_putIcSt19ostreambuf_iteratorIcSt11char_traitsIcEEE; };
0x298FB2C63C450526 { global: _ZTSSt7num_putIwSt19ostreambuf_iteratorIwSt11char_traitsIwEEE; };
0x0000000000000000 { global: _ZTSSt8bad_cast; };
0x36BF86899D2D1809 { global: _ZTSSt8ios_base; };
0x0089487124DDBBB8 { global: _ZTSSt8messagesIcE; };
0xE5589960945EC3A8 { global: _ZTSSt8messagesIwE; };
0xD99A8BD639CBF2CA { global: _ZTSSt8numpunctIcE; };
0xC6E1143289463305 { global: _ZTSSt8numpunctIwE; };
0x0097E3831D9F7A2C { global: _ZTSSt8time_getIcSt19istreambuf_iteratorIcSt11char_traitsIcEEE; };
0x6E7DEC6F64B01A4F { global: _ZTSSt8time_getIwSt19istreambuf_iteratorIwSt11char_traitsIwEEE; };
0x388F7CF4B6F758AD { global: _ZTSSt8time_putIcSt19ostreambuf_iteratorIcSt11char_traitsIcEEE; };
0x82AC0FB1299D87E5 { global: _ZTSSt8time_putIwSt19ostreambuf_iteratorIwSt11char_traitsIwEEE; };
0xDB6836C4E35D5D5E { global: _ZTSSt9bad_alloc; };
0x4EE28944829C71E0 { global: _ZTSSt9basic_iosIcSt11char_traitsIcEE; };
0xC185980BCC4D14E2 { global: _ZTSSt9basic_iosIwSt11char_traitsIwEE; };
0x1FAD6113DA4B0665 { global: _ZTSSt9exception; };
0x002BC0B3289EE1D7 { global: _ZTSSt9money_getIcSt19istreambuf_iteratorIcSt11char_traitsIcEEE; };
0x43760868270478E3 { global: _ZTSSt9money_getIwSt19istreambuf_iteratorIwSt11char_traitsIwEEE; };
0xC11C8A35DB586046 { global: _ZTSSt9money_putIcSt19ostreambuf_iteratorIcSt11char_traitsIcEEE; };
0xD31E0D4FEF8B53DB { global: _ZTSSt9money_putIwSt19ostreambuf_iteratorIwSt11char_traitsIwEEE; };
0x00E635F74044C987 { global: _ZTSSt9time_base; };
0x586EE5AE6171C8A6 { global: _ZTSSt9type_info; };
0x88E2D392D5DEE9AD { global: _ZTSa; };
0x33CEB2E1B9B1F960 { global: _ZTSb; };
0xCC6A42581B550B40 { global: _ZTSc; };
0xA4C4144127D7E991 { global: _ZTSd; };
0x28D81C12D788EF62 { global: _ZTSe; };
0x685315301CCEE639 { global: _ZTSf; };
0x04D0BB21E25E959D { global: _ZTSh; };
0xA5AA4755C5A43B90 { global: _ZTSi; };
0xD67CA56824E21F4F { global: _ZTSj; };
0x93D904AE9CF64AFF { global: _ZTSl; };
0x3B3302EB2CFA468C { global: _ZTSm; };
0x55E9CB2520EE0D76 { global: _ZTSs; };
0x7F9CE6818292A486 { global: _ZTSt; };
0x988D12479B3B9311 { global: _ZTSv; };
0x5174BC56002720FE { global: _ZTSw; };
0x37C28B099737635C { global: _ZTSx; };
0x91FB88357C876B24 { global: _ZTSy; };
0x7E39E2EE792A2783 { global: _ZTVN10__cxxabiv116__enum_type_infoE; };
0x68C421328622A64E { global: _ZTVN10__cxxabiv117__array_type_infoE; };
0x6F257E1569409C1E { global: _ZTVN10__cxxabiv117__class_type_infoE; };
0xEC48AB6C4EECB781 { global: _ZTVN10__cxxabiv117__pbase_type_infoE; };
0x69E1F12D6C2AD204 { global: _ZTVN10__cxxabiv119__pointer_type_infoE; };
0x09212391362DE5DC { global: _ZTVN10__cxxabiv120__function_type_infoE; };
0xA59F565DC0A53CEF { global: _ZTVN10__cxxabiv120__si_class_type_infoE; };
0xF41C9131DA3BCB08 { global: _ZTVN10__cxxabiv121__vmi_class_type_infoE; };
0x001B85CC492D70C4 { global: _ZTVN10__cxxabiv123__fundamental_type_infoE; };
0xD87E7571A1D95346 { global: _ZTVN10__cxxabiv129__pointer_to_member_type_infoE; };
0x58953D0753A345B0 { global: _ZTVN6Dinkum7threads10lock_errorE; };
0xA2E5C73D78CA50BE { global: _ZTVN6Dinkum7threads21thread_resource_errorE; };
0x406909CC1B375A65 { global: _ZTVNSt6locale7_LocimpE; };
0xC8B1391F7D39F00A { global: _ZTVNSt8ios_base7failureE; };
0xFBC8C8B69B727904 { global: _ZTVSi; };
0xAA3C8AF745155423 { global: _ZTVSo; };
0x8D12F08FC4CB7106 { global: _ZTVSt10bad_typeid; };
0x5DB1721829371B6B { global: _ZTVSt10moneypunctIcLb0EE; };
0x31FC8FCF62791342 { global: _ZTVSt10moneypunctIcLb1EE; };
0x45FA4F0D46B15493 { global: _ZTVSt10moneypunctIwLb0EE; };
0x0000000000000000 { global: _ZTVSt10moneypunctIwLb1EE; };
0x00B9D4CCE8DC7136 { global: _ZTVSt11logic_error; };
0x45BCD637C5F6D616 { global: _ZTVSt11range_error; };
0x007047D53886E8F0 { global: _ZTVSt11regex_error; };
0x6A91CABF8E90682C { global: _ZTVSt12bad_weak_ptr; };
0xA0089D2ABC6E52FD { global: _ZTVSt12domain_error; };
0x00E8B3254D2D679E { global: _ZTVSt12future_error; };
0x72ABDE6BDB96A6F4 { global: _ZTVSt12length_error; };
0x009FE6942A40B7B0 { global: _ZTVSt12out_of_range; };
0x06AF26D383CDD73C { global: _ZTVSt12system_error; };
0x001AFA72A65F6DE4 { global: _ZTVSt13bad_exception; };
0x00AD2003633A514D { global: _ZTVSt13basic_filebufIcSt11char_traitsIcEE; };
0x4F1E58F81409AF3B { global: _ZTVSt13basic_filebufIwSt11char_traitsIwEE; };
0x000C13B19471C49F { global: _ZTVSt13basic_istreamIwSt11char_traitsIwEE; };
0x04CB919B0332E9E1 { global: _ZTVSt13basic_ostreamIwSt11char_traitsIwEE; };
0x0000000000000000 { global: _ZTVSt13runtime_error; };
0x945EBA34402A6A77 { global: _ZTVSt14error_category; };
0x033C3D0BC732EC56 { global: _ZTVSt14overflow_error; };
0x0066B15C2406F4BF { global: _ZTVSt15underflow_error; };
0x0000000000000000 { global: _ZTVSt16invalid_argument; };
0x8FAAB03A2D8D6FB9 { global: _ZTVSt16nested_exception; };
0xC2E3ABBA792922B5 { global: _ZTVSt17bad_function_call; };
0x01918A64856893A5 { global: _ZTVSt18bad_variant_access; };
0x67EBDC5F7AE71028 { global: _ZTVSt20bad_array_new_length; };
0x006077C6DCADB709 { global: _ZTVSt22_Future_error_category; };
0xA93C159731A85626 { global: _ZTVSt22_System_error_category; };
0x52E547B267D53875 { global: _ZTVSt23_Generic_error_category; };
0x9493C2339D2C7537 { global: _ZTVSt24_Iostream_error_category; };
0x091A0C2286646215 { global: _ZTVSt4_Pad; };
0x0018A59C033E86EE { global: _ZTVSt5ctypeIcE; };
0xA9D1ECBBE808C51A { global: _ZTVSt5ctypeIwE; };
0xEA002134708D1F16 { global: _ZTVSt7_MpunctIcE; };
0x00FA1959AAC5E950 { global: _ZTVSt7_MpunctIwE; };
0xF47D814AD10000C8 { global: _ZTVSt7codecvtIDic9_MbstatetE; };
0x8E5348DD2485E35A { global: _ZTVSt7codecvtIDsc9_MbstatetE; };
0x0068AD5899F36102 { global: _ZTVSt7codecvtIcc9_MbstatetE; };
0x001D30ECCE1B18B9 { global: _ZTVSt7codecvtIwc9_MbstatetE; };
0xAEE66D2306C21639 { global: _ZTVSt7collateIcE; };
0xAD9C1491A434D89E { global: _ZTVSt7collateIwE; };
0x29F7133DB79A3AA8 { global: _ZTVSt7num_getIcSt19istreambuf_iteratorIcSt11char_traitsIcEEE; };
0x63D0BD19E2B26770 { global: _ZTVSt7num_getIwSt19istreambuf_iteratorIwSt11char_traitsIwEEE; };
0xD64645724B4E9BEB { global: _ZTVSt7num_putIcSt19ostreambuf_iteratorIcSt11char_traitsIcEEE; };
0xE7DA32C1A6996C99 { global: _ZTVSt7num_putIwSt19ostreambuf_iteratorIwSt11char_traitsIwEEE; };
0xB551C4F82F2F1979 { global: _ZTVSt8bad_cast; };
0x009B2AA5B7028B06 { global: _ZTVSt8ios_base; };
0x16712710230919A8 { global: _ZTVSt8messagesIcE; };
0xD857B3B18C1E9609 { global: _ZTVSt8messagesIwE; };
0x009499CF727D1CBD { global: _ZTVSt8numpunctIcE; };
0x1ADB25F0F525E345 { global: _ZTVSt8numpunctIwE; };
0x00A3892DE75B8EE3 { global: _ZTVSt8time_getIcSt19istreambuf_iteratorIcSt11char_traitsIcEEE; };
0xB0471AD6750EB9E0 { global: _ZTVSt8time_getIwSt19istreambuf_iteratorIwSt11char_traitsIwEEE; };
0x003B07C10F69E125 { global: _ZTVSt8time_putIcSt19ostreambuf_iteratorIcSt11char_traitsIcEEE; };
0xE4A38F07ED5E11FB { global: _ZTVSt8time_putIwSt19ostreambuf_iteratorIwSt11char_traitsIwEEE; };
0x10C346E9C1E2B654 { global: _ZTVSt9bad_alloc; };
0x742CDE15F83D5962 { global: _ZTVSt9exception; };
0xDE7DF00891853FBA { global: _ZTVSt9money_getIcSt19istreambuf_iteratorIcSt11char_traitsIcEEE; };
0x094906D5C2B64FE5 { global: _ZTVSt9money_getIwSt19istreambuf_iteratorIwSt11char_traitsIwEEE; };
0xCDD09EC751E30823 { global: _ZTVSt9money_putIcSt19ostreambuf_iteratorIcSt11char_traitsIcEEE; };
0xA208B966894C52CE { global: _ZTVSt9money_putIwSt19ostreambuf_iteratorIwSt11char_traitsIwEEE; };
0xEF8F4011D49DE06A { global: _ZTVSt9type_info; };
0x00E059656F37E1DA { global: _ZZNKSt7num_getIcSt19istreambuf_iteratorIcSt11char_traitsIcEEE8_GetffldEPcRS3_S6_RSt8ios_basePiE4_Src; };
0x3505BA42310F51A9 { global: _ZZNKSt7num_getIcSt19istreambuf_iteratorIcSt11char_traitsIcEEE8_GetifldEPcRS3_S6_NSt5_IosbIiE9_FmtflagsERKSt6localeE4_Src; };
0xDCFF8271D6A44A2D { global: _ZZNKSt7num_getIcSt19istreambuf_iteratorIcSt11char_traitsIcEEE9_GetffldxEPcRS3_S6_RSt8ios_basePiE4_Src; };
0x00A2073947C7F9D0 { global: _ZZNKSt7num_getIwSt19istreambuf_iteratorIwSt11char_traitsIwEEE8_GetffldEPcRS3_S6_RSt8ios_basePiE4_Src; };
0xDE48D7CF39C7C828 { global: _ZZNKSt7num_getIwSt19istreambuf_iteratorIwSt11char_traitsIwEEE8_GetifldEPcRS3_S6_NSt5_IosbIiE9_FmtflagsERKSt6localeE4_Src; };
0x0CA9303E98BEB967 { global: _ZZNKSt7num_getIwSt19istreambuf_iteratorIwSt11char_traitsIwEEE9_GetffldxEPcRS3_S6_RSt8ios_basePiE4_Src; };
0x0000000000000000 { global: _ZZNKSt9money_getIcSt19istreambuf_iteratorIcSt11char_traitsIcEEE8_GetmfldERS3_S5_bRSt8ios_basePcE4_Src; };
0x1C2CCD09C3F1BBEC { global: _ZZNKSt9money_getIwSt19istreambuf_iteratorIwSt11char_traitsIwEEE8_GetmfldERS3_S5_bRSt8ios_basePwE4_Src; };
0xB076A052CBC70679 { global: _ZZNKSt9money_putIcSt19ostreambuf_iteratorIcSt11char_traitsIcEEE6do_putES3_bRSt8ios_basecRKSsE4_Src; };
0x039117F9E266408F { global: _ZZNKSt9money_putIwSt19ostreambuf_iteratorIwSt11char_traitsIwEEE6do_putES3_bRSt8ios_basewRKSbIwS2_SaIwEEE4_Src; };
0x8DFABDD8AF04D557 { global: _ZZNSt13basic_filebufIcSt11char_traitsIcEE5_InitEP7__sFILENS2_7_InitflEE7_Stinit; };
0x00028651BE7BDAAB { global: _ZZNSt13basic_filebufIwSt11char_traitsIwEE5_InitEP7__sFILENS2_7_InitflEE7_Stinit; };
0x6CFB5DA69C35FBB2 { global: _Zero; };
0x5C634811D47260FA { global: __cleanup; };
0x095A13E3015895E1 { global: __fe_dfl_env; };
0xAB53AF51A9B40495 { global: __isthreaded; };
0xEFBA4BD45A03E08E { global: __mb_cur_max; };
0x7C660B06BD823B00 { global: __mb_sb_limit; };
0x006ACF0E76D1F504 { global: __stderrp; };
0x6E001CB1B704CE77 { global: __stdinp; };
0xCEA26107100A7EC7 { global: __stdoutp; };
0x9107A530162090AD { global: _thread_autoinit_dummy_decl; };
0x766520CD45F79D75 { global: _thread_autoinit_dummy_decl_stub; };
0xB4E89C5A09A4E192 { global: daylight; };
0xCC6D01349399766E { global: optarg; };
0xC9A1575D588B58FC { global: opterr; };
0x00CC29D2256A508F { global: optind; };
0x170CD5699F159EEB { global: optopt; };
0x00099366FA836604 { global: optreset; };
0x006AAAA9988EF58F { global: sceLibcDebugOut; };
0x1E680AA0E5A951CF { global: sceLibcOnce; };
0xE6038E0B49335B47 { global: signgam; };
0xF8252B20CA55B9A3 { global: stderr; };
0xA26419DFA112AFDF { global: stdin; };
0xDDE197897A452EDD { global: stdout; };
0x00643F83A7E2EC1A { global: sys_nsig; };
0xC82746B296CD1D9F { global: sys_siglist; };
0x635E9FBBE142FB74 { global: sys_signame; };
0x0039EB7D007CF0B5 { global: timezone; };
0x04062342E6D2653F { global: tzname; };
